(lp1
(dp2
S'sophomore'
p3
(dp4
S'airYpR'
p5
F9
sS'rushing_touchdowns'
p6
I15
sS'airTDpG'
p7
F0.058823529411764705
sS'rushing_yards'
p8
I908
sS'rushYpA'
p9
F3.1527777777777777
sS'receiving_receptions'
p10
I29
sS'rushTDpA'
p11
F0.052083333333333336
sS'receiving_yards'
p12
I261
sS'airTDpR'
p13
F0.034482758620689655
sS'receiving_touchdowns'
p14
I1
sS'rushYpG'
p15
F53.411764705882355
sS'airYpG'
p16
F15.352941176470589
sS'rushing_attempts'
p17
I288
sS'rushTDpG'
p18
F0.88235294117647056
sS'fantasyPoints'
p19
F241.90000000000001
sS'gamesPlayed'
p20
I17
sS'receiving_targets'
p21
I49
sS'ID'
p22
I8
sS'fantasyPointsPerGame'
p23
F14.229411764705883
sS'name'
p24
VKarim Abdul-Jabbar
p25
ssS'rookie'
p26
(dp27
S'airYpR'
p28
F6.0434782608695654
sS'rushing_touchdowns'
p29
I11
sS'airTDpG'
p30
F0
sS'rushing_yards'
p31
I1116
sS'rushYpA'
p32
F3.6351791530944624
sS'receiving_receptions'
p33
I23
sS'rushTDpA'
p34
F0.035830618892508145
sS'receiving_yards'
p35
I139
sS'airTDpR'
p36
F0
sS'receiving_touchdowns'
p37
I0
sS'rushYpG'
p38
F69.75
sS'airYpG'
p39
F8.6875
sS'rushing_attempts'
p40
I307
sS'rushTDpG'
p41
F0.6875
sS'fantasyPoints'
p42
F214.5
sS'gamesPlayed'
p43
I16
sS'receiving_targets'
p44
I46
sS'ID'
p45
I8
sS'fantasyPointsPerGame'
p46
F13.40625
sS'name'
p47
VKarim Abdul-Jabbar
p48
ssS'name'
p49
VKarim Abdul-Jabbar
p50
sS'ID'
p51
I8
sa(dp52
g3
(dp53
g5
F7.7692307692307692
sg6
I2
sg7
F0
sg8
I317
sg9
F3.6436781609195403
sg10
I13
sg11
F0.022988505747126436
sg12
I101
sg13
F0
sg14
I0
sg15
F63.399999999999999
sg16
F20.199999999999999
sg17
I87
sg18
F0.40000000000000002
sg19
F66.799999999999997
sg20
I5
sg21
I0
sg22
I24632
sg23
F13.359999999999999
sg24
VDon Woods
p54
ssg26
(dp55
g28
F13.423076923076923
sg29
I7
sg30
F0.25
sg31
I1162
sg32
F5.1189427312775333
sg33
I26
sg34
F0.030837004405286344
sg35
I349
sg36
F0.11538461538461539
sg37
I3
sg38
F96.833333333333329
sg39
F29.083333333333332
sg40
I227
sg41
F0.58333333333333337
sg42
F237.09999999999999
sg43
I12
sg44
I0
sg45
I24632
sg46
F19.758333333333333
sg47
VDon Woods
p56
ssg49
VDon Woods
p57
sg51
I24632
sa(dp58
g3
(dp59
g5
F8.9322033898305087
sg6
I1
sg7
F0
sg8
I273
sg9
F5.9347826086956523
sg10
I59
sg11
F0.021739130434782608
sg12
I527
sg13
F0
sg14
I0
sg15
F17.0625
sg16
F32.9375
sg17
I46
sg18
F0.0625
sg19
F145
sg20
I16
sg21
I0
sg22
I24653
sg23
F9.0625
sg24
VKeith Woodside
p60
ssg26
(dp61
g28
F9.0256410256410255
sg29
I3
sg30
F0.125
sg31
I195
sg32
F2.3493975903614457
sg33
I39
sg34
F0.03614457831325301
sg35
I352
sg36
F0.05128205128205128
sg37
I2
sg38
F12.1875
sg39
F22
sg40
I83
sg41
F0.1875
sg42
F123.7
sg43
I16
sg44
I0
sg45
I24653
sg46
F7.7312500000000002
sg47
VKeith Woodside
p62
ssg49
VKeith Woodside
p63
sg51
I24653
sa(dp64
g3
(dp65
g5
F6.4444444444444446
sg6
I4
sg7
F0.0625
sg8
I1203
sg9
F3.8557692307692308
sg10
I18
sg11
F0.01282051282051282
sg12
I116
sg13
F0.055555555555555552
sg14
I1
sg15
F75.1875
sg16
F7.25
sg17
I312
sg18
F0.25
sg19
F179.90000000000001
sg20
I16
sg21
I22
sg22
I8278
sg23
F11.24375
sg24
VRyan Grant
p66
ssg26
(dp67
g28
F4.4848484848484844
sg29
I11
sg30
F0
sg31
I1186
sg32
F5.2017543859649127
sg33
I33
sg34
F0.048245614035087717
sg35
I148
sg36
F0
sg37
I0
sg38
F69.764705882352942
sg39
F8.7058823529411757
sg40
I228
sg41
F0.6470588235294118
sg42
F232.40000000000001
sg43
I17
sg44
I42
sg45
I8278
sg46
F13.670588235294119
sg47
VRyan Grant
p68
ssg49
VRyan Grant
p69
sg51
I8278
sa(dp70
g3
(dp71
g5
F13.142857142857142
sg6
I4
sg7
F0
sg8
I857
sg9
F3.4837398373983741
sg10
I28
sg11
F0.016260162601626018
sg12
I368
sg13
F0
sg14
I0
sg15
F53.5625
sg16
F23
sg17
I246
sg18
F0.25
sg19
F174.5
sg20
I16
sg21
I0
sg22
I24665
sg23
F10.90625
sg24
VButch Woolfolk
p72
ssg26
(dp73
g28
F9.7391304347826093
sg29
I2
sg30
F0.22222222222222221
sg31
I439
sg32
F3.9196428571428572
sg33
I23
sg34
F0.017857142857142856
sg35
I224
sg36
F0.086956521739130432
sg37
I2
sg38
F48.777777777777779
sg39
F24.888888888888889
sg40
I112
sg41
F0.22222222222222221
sg42
F113.3
sg43
I9
sg44
I0
sg45
I24665
sg46
F12.588888888888889
sg47
VButch Woolfolk
p74
ssg49
VButch Woolfolk
p75
sg51
I24665
sa(dp76
g3
(dp77
g5
F8.6199999999999992
sg6
I12
sg7
F0.1875
sg8
I1115
sg9
F4.0693430656934311
sg10
I50
sg11
F0.043795620437956206
sg12
I431
sg13
F0.059999999999999998
sg14
I3
sg15
F69.6875
sg16
F26.9375
sg17
I274
sg18
F0.75
sg19
F294.60000000000002
sg20
I16
sg21
I63
sg22
I108
sg23
F18.412500000000001
sg24
VJoseph Addai
p78
ssg26
(dp79
g28
F7.145161290322581
sg29
I9
sg30
F0.050000000000000003
sg31
I1375
sg32
F4.5529801324503314
sg33
I62
sg34
F0.029801324503311258
sg35
I443
sg36
F0.016129032258064516
sg37
I1
sg38
F68.75
sg39
F22.149999999999999
sg40
I302
sg41
F0.45000000000000001
sg42
F303.80000000000001
sg43
I20
sg44
I73
sg45
I108
sg46
F15.190000000000001
sg47
VJoseph Addai
p80
ssg49
VJoseph Addai
p81
sg51
I108
sa(dp82
g3
(dp83
g5
F8.75
sg6
I0
sg7
F0
sg8
I418
sg9
F3.834862385321101
sg10
I8
sg11
F0
sg12
I70
sg13
F0
sg14
I0
sg15
F38
sg16
F6.3636363636363633
sg17
I109
sg18
F0
sg19
F56.799999999999997
sg20
I11
sg21
I0
sg22
I24688
sg23
F5.1636363636363631
sg24
VTim Worley
p84
ssg26
(dp85
g28
F8.4499999999999993
sg29
I6
sg30
F0
sg31
I874
sg32
F3.9908675799086759
sg33
I20
sg34
F0.027397260273972601
sg35
I169
sg36
F0
sg37
I0
sg38
F51.411764705882355
sg39
F9.9411764705882355
sg40
I219
sg41
F0.35294117647058826
sg42
F160.30000000000001
sg43
I17
sg44
I0
sg45
I24688
sg46
F9.4294117647058826
sg47
VTim Worley
p86
ssg49
VTim Worley
p87
sg51
I24688
sa(dp88
g3
(dp89
g5
F10.333333333333334
sg6
I0
sg7
F0.0625
sg8
I673
sg9
F3.3316831683168315
sg10
I12
sg11
F0
sg12
I124
sg13
F0.083333333333333329
sg14
I1
sg15
F42.0625
sg16
F7.75
sg17
I202
sg18
F0
sg19
F97.700000000000003
sg20
I16
sg21
I0
sg22
I8346
sg23
F6.1062500000000002
sg24
VBoyce Green
p90
ssg26
(dp91
g28
F6.6799999999999997
sg29
I3
sg30
F0.076923076923076927
sg31
I497
sg32
F4.7788461538461542
sg33
I25
sg34
F0.028846153846153848
sg35
I167
sg36
F0.040000000000000001
sg37
I1
sg38
F38.230769230769234
sg39
F12.846153846153847
sg40
I104
sg41
F0.23076923076923078
sg42
F115.40000000000001
sg43
I13
sg44
I0
sg45
I8346
sg46
F8.8769230769230774
sg47
VBoyce Green
p92
ssg49
VBoyce Green
p93
sg51
I8346
sa(dp94
g3
(dp95
g5
F9.8928571428571423
sg6
I1
sg7
F0
sg8
I613
sg9
F5.9514563106796112
sg10
I28
sg11
F0.0097087378640776691
sg12
I277
sg13
F0
sg14
I0
sg15
F40.866666666666667
sg16
F18.466666666666665
sg17
I103
sg18
F0.066666666666666666
sg19
F123
sg20
I15
sg21
I39
sg22
I16548
sg23
F8.1999999999999993
sg24
VJerious Norwood
p96
ssg26
(dp97
g28
F8.5
sg29
I2
sg30
F0
sg31
I633
sg32
F6.3939393939393936
sg33
I12
sg34
F0.020202020202020204
sg35
I102
sg36
F0
sg37
I0
sg38
F45.214285714285715
sg39
F7.2857142857142856
sg40
I99
sg41
F0.14285714285714285
sg42
F97.5
sg43
I14
sg44
I15
sg45
I16548
sg46
F6.9642857142857144
sg47
VJerious Norwood
p98
ssg49
VJerious Norwood
p99
sg51
I16548
sa(dp100
g3
(dp101
g5
F7.6399999999999997
sg6
I3
sg7
F0
sg8
I466
sg9
F3.7886178861788617
sg10
I25
sg11
F0.024390243902439025
sg12
I191
sg13
F0
sg14
I0
sg15
F33.285714285714285
sg16
F13.642857142857142
sg17
I123
sg18
F0.21428571428571427
sg19
F108.7
sg20
I14
sg21
I0
sg22
I16557
sg23
F7.7642857142857142
sg24
VDon Nottingham 
p102
ssg26
(dp103
g28
F5.9500000000000002
sg29
I7
sg30
F0
sg31
I513
sg32
F3.9767441860465116
sg33
I20
sg34
F0.054263565891472867
sg35
I119
sg36
F0
sg37
I0
sg38
F32.0625
sg39
F7.4375
sg40
I129
sg41
F0.4375
sg42
F125.2
sg43
I16
sg44
I0
sg45
I16557
sg46
F7.8250000000000002
sg47
VDon Nottingham 
p104
ssg49
VDon Nottingham 
p105
sg51
I16557
sa(dp106
g3
(dp107
g5
F8.5
sg6
I2
sg7
F0
sg8
I731
sg9
F4.6265822784810124
sg10
I16
sg11
F0.012658227848101266
sg12
I136
sg13
F0
sg14
I0
sg15
F52.214285714285715
sg16
F9.7142857142857135
sg17
I158
sg18
F0.14285714285714285
sg19
F114.7
sg20
I14
sg21
I0
sg22
I8368
sg23
F8.1928571428571431
sg24
VHarold Green
p108
ssg26
(dp109
g28
F7.5
sg29
I1
sg30
F0.14285714285714285
sg31
I408
sg32
F4.3404255319148932
sg33
I14
sg34
F0.010638297872340425
sg35
I105
sg36
F0.14285714285714285
sg37
I2
sg38
F29.142857142857142
sg39
F7.5
sg40
I94
sg41
F0.071428571428571425
sg42
F83.299999999999997
sg43
I14
sg44
I0
sg45
I8368
sg46
F5.9500000000000002
sg47
VHarold Green
p110
ssg49
VHarold Green
p111
sg51
I8368
sa(dp112
g3
(dp113
g5
F9.3478260869565215
sg6
I5
sg7
F0.083333333333333329
sg8
I611
sg9
F3.658682634730539
sg10
I23
sg11
F0.029940119760479042
sg12
I215
sg13
F0.043478260869565216
sg14
I1
sg15
F50.916666666666664
sg16
F17.916666666666668
sg17
I167
sg18
F0.41666666666666669
sg19
F141.59999999999999
sg20
I12
sg21
I0
sg22
I8414
sg23
F11.799999999999999
sg24
VWoody Green
p114
ssg26
(dp115
g28
F9.5
sg29
I3
sg30
F0.10000000000000001
sg31
I509
sg32
F3.7703703703703701
sg33
I26
sg34
F0.022222222222222223
sg35
I247
sg36
F0.038461538461538464
sg37
I1
sg38
F50.899999999999999
sg39
F24.699999999999999
sg40
I135
sg41
F0.29999999999999999
sg42
F125.59999999999999
sg43
I10
sg44
I0
sg45
I8414
sg46
F12.559999999999999
sg47
VWoody Green
p116
ssg49
VWoody Green
p117
sg51
I8414
sa(dp118
g3
(dp119
g5
F7.5882352941176467
sg6
I3
sg7
F0
sg8
I964
sg9
F4.1913043478260867
sg10
I17
sg11
F0.013043478260869565
sg12
I129
sg13
F0
sg14
I0
sg15
F53.555555555555557
sg16
F7.166666666666667
sg17
I230
sg18
F0.16666666666666666
sg19
F144.30000000000001
sg20
I18
sg21
I25
sg22
I8436
sg23
F8.0166666666666675
sg24
VShonn Greene
p120
ssg26
(dp121
g28
F4
sg29
I4
sg30
F0
sg31
I844
sg32
F5.2098765432098766
sg33
I1
sg34
F0.024691358024691357
sg35
I4
sg36
F0
sg37
I0
sg38
F49.647058823529413
sg39
F0.23529411764705882
sg40
I162
sg41
F0.23529411764705882
sg42
F109.8
sg43
I17
sg44
I1
sg45
I8436
sg46
F6.4588235294117649
sg47
VShonn Greene
p122
ssg49
VShonn Greene
p123
sg51
I8436
sa(dp124
g3
(dp125
g5
F3.8333333333333335
sg6
I8
sg7
F0
sg8
I1139
sg9
F3.7100977198697067
sg10
I6
sg11
F0.026058631921824105
sg12
I23
sg13
F0
sg14
I0
sg15
F67
sg16
F1.3529411764705883
sg17
I307
sg18
F0.47058823529411764
sg19
F170.19999999999999
sg20
I17
sg21
I12
sg22
I20521
sg23
F10.011764705882353
sg24
VAntowain Smith
p126
ssg26
(dp127
g28
F6.3214285714285712
sg29
I8
sg30
F0
sg31
I840
sg32
F4.3298969072164946
sg33
I28
sg34
F0.041237113402061855
sg35
I177
sg36
F0
sg37
I0
sg38
F52.5
sg39
F11.0625
sg40
I194
sg41
F0.5
sg42
F177.69999999999999
sg43
I16
sg44
I47
sg45
I20521
sg46
F11.106249999999999
sg47
VAntowain Smith
p128
ssg49
VAntowain Smith
p129
sg51
I20521
sa(dp130
g3
(dp131
g5
F6.2400000000000002
sg6
I1
sg7
F0.066666666666666666
sg8
I465
sg9
F3.5769230769230771
sg10
I50
sg11
F0.0076923076923076927
sg12
I312
sg13
F0.02
sg14
I1
sg15
F31
sg16
F20.800000000000001
sg17
I130
sg18
F0.066666666666666666
sg19
F139.69999999999999
sg20
I15
sg21
I68
sg22
I24845
sg23
F9.3133333333333326
sg24
VT.J. Yeldon
p132
ssg26
(dp133
g28
F7.75
sg29
I2
sg30
F0.083333333333333329
sg31
I740
sg32
F4.0659340659340657
sg33
I36
sg34
F0.01098901098901099
sg35
I279
sg36
F0.027777777777777776
sg37
I1
sg38
F61.666666666666664
sg39
F23.25
sg40
I182
sg41
F0.16666666666666666
sg42
F155.90000000000001
sg43
I12
sg44
I46
sg45
I24845
sg46
F12.991666666666667
sg47
VT.J. Yeldon
p134
ssg49
VT.J. Yeldon
p135
sg51
I24845
sa(dp136
g3
(dp137
g5
F6.6206896551724137
sg6
I3
sg7
F0
sg8
I381
sg9
F3.1487603305785123
sg10
I29
sg11
F0.024793388429752067
sg12
I192
sg13
F0
sg14
I0
sg15
F27.214285714285715
sg16
F13.714285714285714
sg17
I121
sg18
F0.21428571428571427
sg19
F104.3
sg20
I14
sg21
I0
sg22
I8487
sg23
F7.4500000000000002
sg24
VBob Gresham
p138
ssg26
(dp139
g28
F11.941176470588236
sg29
I6
sg30
F0
sg31
I383
sg32
F3.015748031496063
sg33
I17
sg34
F0.047244094488188976
sg35
I203
sg36
F0
sg37
I0
sg38
F29.46153846153846
sg39
F15.615384615384615
sg40
I127
sg41
F0.46153846153846156
sg42
F111.59999999999999
sg43
I13
sg44
I0
sg45
I8487
sg46
F8.5846153846153843
sg47
VBob Gresham
p140
ssg49
VBob Gresham
p141
sg51
I8487
sa(dp142
g3
(dp143
g5
F8.5714285714285712
sg6
I0
sg7
F0
sg8
I549
sg9
F4.007299270072993
sg10
I28
sg11
F0
sg12
I240
sg13
F0
sg14
I0
sg15
F45.75
sg16
F20
sg17
I137
sg18
F0
sg19
F106.90000000000001
sg20
I12
sg21
I0
sg22
I8499
sg23
F8.9083333333333332
sg24
VArchie Griffin
p144
ssg26
(dp145
g28
F8.625
sg29
I3
sg30
F0
sg31
I625
sg32
F4.5289855072463769
sg33
I16
sg34
F0.021739130434782608
sg35
I138
sg36
F0
sg37
I0
sg38
F44.642857142857146
sg39
F9.8571428571428577
sg40
I138
sg41
F0.21428571428571427
sg42
F110.3
sg43
I14
sg44
I0
sg45
I8499
sg46
F7.8785714285714281
sg47
VArchie Griffin
p146
ssg49
VArchie Griffin
p147
sg51
I8499
sa(dp148
g3
(dp149
g5
F7.7027027027027026
sg6
I3
sg7
F0
sg8
I473
sg9
F4.6372549019607847
sg10
I37
sg11
F0.029411764705882353
sg12
I285
sg13
F0
sg14
I0
sg15
F29.5625
sg16
F17.8125
sg17
I102
sg18
F0.1875
sg19
F130.80000000000001
sg20
I16
sg21
I0
sg22
I8513
sg23
F8.1750000000000007
sg24
VKeith Griffin
p150
ssg26
(dp151
g28
F5.375
sg29
I0
sg30
F0
sg31
I408
sg32
F4.2061855670103094
sg33
I8
sg34
F0
sg35
I43
sg36
F0
sg37
I0
sg38
F24
sg39
F2.5294117647058822
sg40
I97
sg41
F0
sg42
F53.100000000000001
sg43
I17
sg44
I0
sg45
I8513
sg46
F3.1235294117647059
sg47
VKeith Griffin
p152
ssg49
VKeith Griffin
p153
sg51
I8513
sa(dp154
g3
(dp155
g5
F8.6341463414634152
sg6
I13
sg7
F0.15789473684210525
sg8
I1480
sg9
F4.5679012345679011
sg10
I82
sg11
F0.040123456790123455
sg12
I708
sg13
F0.036585365853658534
sg14
I3
sg15
F77.89473684210526
sg16
F37.263157894736842
sg17
I324
sg18
F0.68421052631578949
sg19
F396.80000000000001
sg20
I19
sg21
I2
sg22
I323
sg23
F20.88421052631579
sg24
VMarcus Allen
p156
ssg26
(dp157
g28
F10.26
sg29
I14
sg30
F0.27272727272727271
sg31
I805
sg32
F4.192708333333333
sg33
I50
sg34
F0.072916666666666671
sg35
I513
sg36
F0.059999999999999998
sg37
I3
sg38
F73.181818181818187
sg39
F46.636363636363633
sg40
I192
sg41
F1.2727272727272727
sg42
F283.80000000000001
sg43
I11
sg44
I0
sg45
I323
sg46
F25.800000000000001
sg47
VMarcus Allen
p158
ssg49
VMarcus Allen
p159
sg51
I323
sa(dp160
g3
(dp161
g5
F9.5882352941176467
sg6
I14
sg7
F0.11764705882352941
sg8
I1249
sg9
F4.52536231884058
sg10
I51
sg11
F0.050724637681159424
sg12
I489
sg13
F0.039215686274509803
sg14
I2
sg15
F73.470588235294116
sg16
F28.764705882352942
sg17
I276
sg18
F0.82352941176470584
sg19
F320.80000000000001
sg20
I17
sg21
I75
sg22
I335
sg23
F18.870588235294118
sg24
VTerry Allen
p162
ssg26
(dp163
g28
F8.1666666666666661
sg29
I2
sg30
F0.066666666666666666
sg31
I563
sg32
F4.6916666666666664
sg33
I6
sg34
F0.016666666666666666
sg35
I49
sg36
F0.16666666666666666
sg37
I1
sg38
F37.533333333333331
sg39
F3.2666666666666666
sg40
I120
sg41
F0.13333333333333333
sg42
F85.200000000000003
sg43
I15
sg44
I0
sg45
I335
sg46
F5.6800000000000006
sg47
VTerry Allen
p164
ssg49
VTerry Allen
p165
sg51
I335
sa(dp166
g3
(dp167
g5
F6.375
sg6
I3
sg7
F0
sg8
I473
sg9
F4.5047619047619047
sg10
I8
sg11
F0.028571428571428571
sg12
I51
sg13
F0
sg14
I0
sg15
F52.555555555555557
sg16
F5.666666666666667
sg17
I105
sg18
F0.33333333333333331
sg19
F78.400000000000006
sg20
I9
sg21
I0
sg22
I16769
sg23
F8.7111111111111121
sg24
VChristian Okoye
p168
ssg26
(dp169
g28
F7.041666666666667
sg29
I3
sg30
F0
sg31
I660
sg32
F4.2038216560509554
sg33
I24
sg34
F0.019108280254777069
sg35
I169
sg36
F0
sg37
I0
sg38
F55
sg39
F14.083333333333334
sg40
I157
sg41
F0.25
sg42
F124.90000000000001
sg43
I12
sg44
I0
sg45
I16769
sg46
F10.408333333333333
sg47
VChristian Okoye
p170
ssg49
VChristian Okoye
p171
sg51
I16769
sa(dp172
g3
(dp173
g5
F7.2222222222222223
sg6
I4
sg7
F0
sg8
I433
sg9
F3.7652173913043478
sg10
I18
sg11
F0.034782608695652174
sg12
I130
sg13
F0
sg14
I0
sg15
F27.0625
sg16
F8.125
sg17
I115
sg18
F0.25
sg19
F98.299999999999997
sg20
I16
sg21
I0
sg22
I8640
sg23
F6.1437499999999998
sg24
VMike Guman
p174
ssg26
(dp175
g28
F9.0666666666666664
sg29
I4
sg30
F0
sg31
I410
sg32
F4.0999999999999996
sg33
I15
sg34
F0.040000000000000001
sg35
I136
sg36
F0
sg37
I0
sg38
F24.117647058823529
sg39
F8
sg40
I100
sg41
F0.23529411764705882
sg42
F93.599999999999994
sg43
I17
sg44
I0
sg45
I8640
sg46
F5.5058823529411764
sg47
VMike Guman
p176
ssg49
VMike Guman
p177
sg51
I8640
sa(dp178
g3
(dp179
g5
F10.887499999999999
sg6
I1
sg7
F0.5
sg8
I442
sg9
F3.4803149606299213
sg10
I80
sg11
F0.007874015748031496
sg12
I871
sg13
F0.10000000000000001
sg14
I8
sg15
F27.625
sg16
F54.4375
sg17
I127
sg18
F0.0625
sg19
F265.30000000000001
sg20
I16
sg21
I0
sg22
I449
sg23
F16.581250000000001
sg24
VGary Anderson 
p180
ssg26
(dp181
g28
F12.057142857142857
sg29
I4
sg30
F0.16666666666666666
sg31
I429
sg32
F3.6982758620689653
sg33
I35
sg34
F0.034482758620689655
sg35
I422
sg36
F0.057142857142857141
sg37
I2
sg38
F35.75
sg39
F35.166666666666664
sg40
I116
sg41
F0.33333333333333331
sg42
F156.09999999999999
sg43
I12
sg44
I0
sg45
I449
sg46
F13.008333333333333
sg47
VGary Anderson 
p182
ssg49
VGary Anderson 
p183
sg51
I449
sa(dp184
g3
(dp185
g5
F7.6046511627906979
sg6
I6
sg7
F0
sg8
I885
sg9
F3.1834532374100721
sg10
I43
sg11
F0.021582733812949641
sg12
I327
sg13
F0
sg14
I0
sg15
F55.3125
sg16
F20.4375
sg17
I278
sg18
F0.375
sg19
F200.19999999999999
sg20
I16
sg21
I58
sg22
I8657
sg23
F12.512499999999999
sg24
VTodd Gurley
p186
ssg26
(dp187
g28
F8.9523809523809526
sg29
I10
sg30
F0
sg31
I1106
sg32
F4.8296943231441052
sg33
I21
sg34
F0.043668122270742356
sg35
I188
sg36
F0
sg37
I0
sg38
F85.07692307692308
sg39
F14.461538461538462
sg40
I229
sg41
F0.76923076923076927
sg42
F210.40000000000001
sg43
I13
sg44
I26
sg45
I8657
sg46
F16.184615384615384
sg47
VTodd Gurley
p188
ssg49
VTodd Gurley
p189
sg51
I8657
sa(dp190
g3
(dp191
g5
F5.75
sg6
I4
sg7
F0
sg8
I678
sg9
F3.8742857142857141
sg10
I8
sg11
F0.022857142857142857
sg12
I46
sg13
F0
sg14
I0
sg15
F42.375
sg16
F2.875
sg17
I175
sg18
F0.25
sg19
F104.40000000000001
sg20
I16
sg21
I12
sg22
I473
sg23
F6.5250000000000004
sg24
VMike Anderson 
p192
ssg26
(dp193
g28
F7.1600000000000001
sg29
I15
sg30
F0
sg31
I1527
sg32
F4.8942307692307692
sg33
I25
sg34
F0.04807692307692308
sg35
I179
sg36
F0
sg37
I0
sg38
F89.82352941176471
sg39
F10.529411764705882
sg40
I312
sg41
F0.88235294117647056
sg42
F285.60000000000002
sg43
I17
sg44
I34
sg45
I473
sg46
F16.800000000000001
sg47
VMike Anderson 
p194
ssg49
VMike Anderson 
p195
sg51
I473
sa(dp196
g3
(dp197
g5
F8.5555555555555554
sg6
I9
sg7
F0
sg8
I1352
sg9
F4.4916943521594686
sg10
I36
sg11
F0.029900332225913623
sg12
I308
sg13
F0
sg14
I0
sg15
F84.5
sg16
F19.25
sg17
I301
sg18
F0.5625
sg19
F256
sg20
I16
sg21
I0
sg22
I476
sg23
F16
sg24
VOttis Anderson 
p198
ssg26
(dp199
g28
F7.5121951219512191
sg29
I8
sg30
F0.125
sg31
I1605
sg32
F4.8489425981873113
sg33
I41
sg34
F0.024169184290030211
sg35
I308
sg36
F0.04878048780487805
sg37
I2
sg38
F100.3125
sg39
F19.25
sg40
I331
sg41
F0.5
sg42
F292.30000000000001
sg43
I16
sg44
I0
sg45
I476
sg46
F18.268750000000001
sg47
VOttis Anderson 
p200
ssg49
VOttis Anderson 
p201
sg51
I476
sa(dp202
g3
(dp203
g5
F9.6538461538461533
sg6
I1
sg7
F0.0625
sg8
I336
sg9
F4.3636363636363633
sg10
I26
sg11
F0.012987012987012988
sg12
I251
sg13
F0.038461538461538464
sg14
I1
sg15
F21
sg16
F15.6875
sg17
I77
sg18
F0.0625
sg19
F96.700000000000003
sg20
I16
sg21
I42
sg22
I17844
sg23
F6.0437500000000002
sg24
VRoosevelt Potts
p204
ssg26
(dp205
g28
F7.2692307692307692
sg29
I0
sg30
F0
sg31
I711
sg32
F3.9720670391061454
sg33
I26
sg34
F0
sg35
I189
sg36
F0
sg37
I0
sg38
F44.4375
sg39
F11.8125
sg40
I179
sg41
F0
sg42
F116
sg43
I16
sg44
I34
sg45
I17844
sg46
F7.25
sg47
VRoosevelt Potts
p206
ssg49
VRoosevelt Potts
p207
sg51
I17844
sa(dp208
g3
(dp209
g5
F10.289156626506024
sg6
I8
sg7
F0.1875
sg8
I1361
sg9
F4.6931034482758625
sg10
I83
sg11
F0.027586206896551724
sg12
I854
sg13
F0.03614457831325301
sg14
I3
sg15
F85.0625
sg16
F53.375
sg17
I290
sg18
F0.5
sg19
F370.5
sg20
I16
sg21
I105
sg22
I1465
sg23
F23.15625
sg24
VLe'Veon Bell
p210
ssg26
(dp211
g28
F8.8666666666666671
sg29
I8
sg30
F0
sg31
I860
sg32
F3.5245901639344264
sg33
I45
sg34
F0.032786885245901641
sg35
I399
sg36
F0
sg37
I0
sg38
F66.15384615384616
sg39
F30.692307692307693
sg40
I244
sg41
F0.61538461538461542
sg42
F218.90000000000001
sg43
I13
sg44
I66
sg45
I1465
sg46
F16.838461538461537
sg47
VLe'Veon Bell
p212
ssg49
VLe'Veon Bell
p213
sg51
I1465
sa(dp214
g3
(dp215
g5
F10.272727272727273
sg6
I0
sg7
F0
sg8
I305
sg9
F3.2795698924731185
sg10
I11
sg11
F0
sg12
I113
sg13
F0
sg14
I0
sg15
F25.416666666666668
sg16
F9.4166666666666661
sg17
I93
sg18
F0
sg19
F52.799999999999997
sg20
I12
sg21
I0
sg22
I677
sg23
F4.3999999999999995
sg24
VJosh Ashton
p216
ssg26
(dp217
g28
F9.4090909090909083
sg29
I3
sg30
F0.071428571428571425
sg31
I546
sg32
F4.265625
sg33
I22
sg34
F0.0234375
sg35
I207
sg36
F0.045454545454545456
sg37
I1
sg38
F39
sg39
F14.785714285714286
sg40
I128
sg41
F0.21428571428571427
sg42
F121.3
sg43
I14
sg44
I0
sg45
I677
sg46
F8.6642857142857146
sg47
VJosh Ashton
p218
ssg49
VJosh Ashton
p219
sg51
I677
sa(dp220
g3
(dp221
g5
F7.3114754098360653
sg6
I9
sg7
F0.1875
sg8
I830
sg9
F4.4623655913978491
sg10
I61
sg11
F0.048387096774193547
sg12
I446
sg13
F0.049180327868852458
sg14
I3
sg15
F51.875
sg16
F27.875
sg17
I186
sg18
F0.5625
sg19
F260.60000000000002
sg20
I16
sg21
I0
sg22
I8925
sg23
F16.287500000000001
sg24
VLorenzo Hampton 
p222
ssg26
(dp223
g28
F7
sg29
I3
sg30
F0
sg31
I369
sg32
F3.5142857142857142
sg33
I8
sg34
F0.028571428571428571
sg35
I56
sg36
F0
sg37
I0
sg38
F20.5
sg39
F3.1111111111111112
sg40
I105
sg41
F0.16666666666666666
sg42
F68.5
sg43
I18
sg44
I0
sg45
I8925
sg46
F3.8055555555555554
sg47
VLorenzo Hampton 
p224
ssg49
VLorenzo Hampton 
p225
sg51
I8925
sa(dp226
g3
(dp227
g5
F6.5813953488372094
sg6
I10
sg7
F0
sg8
I1059
sg9
F4.13671875
sg10
I43
sg11
F0.0390625
sg12
I283
sg13
F0
sg14
I0
sg15
F75.642857142857139
sg16
F20.214285714285715
sg17
I256
sg18
F0.7142857142857143
sg19
F237.19999999999999
sg20
I14
sg21
I0
sg22
I8926
sg23
F16.942857142857143
sg24
VRodney Hampton 
p228
ssg26
(dp229
g28
F8.5625
sg29
I2
sg30
F0.125
sg31
I458
sg32
F4.1261261261261257
sg33
I32
sg34
F0.018018018018018018
sg35
I274
sg36
F0.0625
sg37
I2
sg38
F28.625
sg39
F17.125
sg40
I111
sg41
F0.125
sg42
F129.19999999999999
sg43
I16
sg44
I0
sg45
I8926
sg46
F8.0749999999999993
sg47
VRodney Hampton 
p230
ssg49
VRodney Hampton 
p231
sg51
I8926
sa(dp232
g3
(dp233
g5
F7
sg6
I1
sg7
F0.22222222222222221
sg8
I277
sg9
F3.5974025974025974
sg10
I37
sg11
F0.012987012987012988
sg12
I259
sg13
F0.054054054054054057
sg14
I2
sg15
F30.777777777777779
sg16
F28.777777777777779
sg17
I77
sg18
F0.1111111111111111
sg19
F108.59999999999999
sg20
I9
sg21
I0
sg22
I17147
sg23
F12.066666666666666
sg24
VRick Parros
p234
ssg26
(dp235
g28
F8.6400000000000006
sg29
I2
sg30
F0.0625
sg31
I749
sg32
F4.2556818181818183
sg33
I25
sg34
F0.011363636363636364
sg35
I216
sg36
F0.040000000000000001
sg37
I1
sg38
F46.8125
sg39
F13.5
sg40
I176
sg41
F0.125
sg42
F139.5
sg43
I16
sg44
I0
sg45
I17147
sg46
F8.71875
sg47
VRick Parros
p236
ssg49
VRick Parros
p237
sg51
I17147
sa(dp238
g3
(dp239
g5
F9.9333333333333336
sg6
I13
sg7
F0
sg8
I1390
sg9
F4.469453376205788
sg10
I15
sg11
F0.041800643086816719
sg12
I149
sg13
F0
sg14
I0
sg15
F99.285714285714292
sg16
F10.642857142857142
sg17
I311
sg18
F0.9285714285714286
sg19
F246.90000000000001
sg20
I14
sg21
I0
sg22
I17270
sg23
F17.635714285714286
sg24
VWalter Payton
p240
ssg26
(dp241
g28
F6.4545454545454541
sg29
I7
sg30
F0
sg31
I679
sg32
F3.4642857142857144
sg33
I33
sg34
F0.035714285714285712
sg35
I213
sg36
F0
sg37
I0
sg38
F52.230769230769234
sg39
F16.384615384615383
sg40
I196
sg41
F0.53846153846153844
sg42
F164.19999999999999
sg43
I13
sg44
I0
sg45
I17270
sg46
F12.63076923076923
sg47
VWalter Payton
p242
ssg49
VWalter Payton
p243
sg51
I17270
sa(dp244
g3
(dp245
g5
F10.03448275862069
sg6
I2
sg7
F0.071428571428571425
sg8
I625
sg9
F4.2517006802721085
sg10
I29
sg11
F0.013605442176870748
sg12
I291
sg13
F0.034482758620689655
sg14
I1
sg15
F44.642857142857146
sg16
F20.785714285714285
sg17
I147
sg18
F0.14285714285714285
sg19
F138.59999999999999
sg20
I14
sg21
I0
sg22
I9104
sg23
F9.9000000000000004
sg24
VRoland Harper
p246
ssg26
(dp247
g28
F7.0740740740740744
sg29
I1
sg30
F0
sg31
I453
sg32
F4.5300000000000002
sg33
I27
sg34
F0.01
sg35
I191
sg36
F0
sg37
I0
sg38
F34.846153846153847
sg39
F14.692307692307692
sg40
I100
sg41
F0.076923076923076927
sg42
F97.400000000000006
sg43
I13
sg44
I0
sg45
I9104
sg46
F7.4923076923076923
sg47
VRoland Harper
p248
ssg49
VRoland Harper
p249
sg51
I9104
sa(dp250
g3
(dp251
g5
F11.823529411764707
sg6
I3
sg7
F0.076923076923076927
sg8
I435
sg9
F3.3461538461538463
sg10
I17
sg11
F0.023076923076923078
sg12
I201
sg13
F0.058823529411764705
sg14
I1
sg15
F33.46153846153846
sg16
F15.461538461538462
sg17
I130
sg18
F0.23076923076923078
sg19
F104.59999999999999
sg20
I13
sg21
I0
sg22
I9116
sg23
F8.046153846153846
sg24
VWillard Harrell
p252
ssg26
(dp253
g28
F7.6764705882352944
sg29
I1
sg30
F0.14285714285714285
sg31
I359
sg32
F2.9669421487603307
sg33
I34
sg34
F0.0082644628099173556
sg35
I261
sg36
F0.058823529411764705
sg37
I2
sg38
F25.642857142857142
sg39
F18.642857142857142
sg40
I121
sg41
F0.071428571428571425
sg42
F114
sg43
I14
sg44
I0
sg45
I9116
sg46
F8.1428571428571423
sg47
VWillard Harrell
p254
ssg49
VWillard Harrell
p255
sg51
I9116
sa(dp256
g3
(dp257
g5
F6.9000000000000004
sg6
I3
sg7
F0
sg8
I727
sg9
F3.6717171717171717
sg10
I10
sg11
F0.015151515151515152
sg12
I69
sg13
F0
sg14
I0
sg15
F55.92307692307692
sg16
F5.3076923076923075
sg17
I198
sg18
F0.23076923076923078
sg19
F107.59999999999999
sg20
I13
sg21
I0
sg22
I9167
sg23
F8.2769230769230759
sg24
VFranco Harris
p258
ssg26
(dp259
g28
F9.9642857142857135
sg29
I10
sg30
F0.125
sg31
I1195
sg32
F5.3828828828828827
sg33
I28
sg34
F0.045045045045045043
sg35
I279
sg36
F0.071428571428571425
sg37
I2
sg38
F74.6875
sg39
F17.4375
sg40
I222
sg41
F0.625
sg42
F247.40000000000001
sg43
I16
sg44
I0
sg45
I9167
sg46
F15.4625
sg47
VFranco Harris
p260
ssg49
VFranco Harris
p261
sg51
I9167
sa(dp262
g3
(dp263
g5
F8.4230769230769234
sg6
I14
sg7
F0.11764705882352941
sg8
I658
sg9
F4.7681159420289854
sg10
I26
sg11
F0.10144927536231885
sg12
I219
sg13
F0.076923076923076927
sg14
I2
sg15
F38.705882352941174
sg16
F12.882352941176471
sg17
I138
sg18
F0.82352941176470584
sg19
F209.69999999999999
sg20
I17
sg21
I36
sg22
I1035
sg23
F12.335294117647058
sg24
VMarion Barber
p264
ssg26
(dp265
g28
F6.3888888888888893
sg29
I5
sg30
F0
sg31
I538
sg32
F3.8985507246376812
sg33
I18
sg34
F0.036231884057971016
sg35
I115
sg36
F0
sg37
I0
sg38
F41.384615384615387
sg39
F8.8461538461538467
sg40
I138
sg41
F0.38461538461538464
sg42
F113.3
sg43
I13
sg44
I25
sg45
I1035
sg46
F8.7153846153846146
sg47
VMarion Barber
p266
ssg49
VMarion Barber
p267
sg51
I1035
sa(dp268
g3
(dp269
g5
F9.2666666666666675
sg6
I5
sg7
F0.0625
sg8
I694
sg9
F4.5657894736842106
sg10
I15
sg11
F0.032894736842105261
sg12
I139
sg13
F0.066666666666666666
sg14
I1
sg15
F43.375
sg16
F8.6875
sg17
I152
sg18
F0.3125
sg19
F134.30000000000001
sg20
I16
sg21
I23
sg22
I1075
sg23
F8.3937500000000007
sg24
VKevan Barlow
p270
ssg26
(dp271
g28
F10.375
sg29
I4
sg30
F0.0625
sg31
I529
sg32
F4.069230769230769
sg33
I24
sg34
F0.030769230769230771
sg35
I249
sg36
F0.041666666666666664
sg37
I1
sg38
F33.0625
sg39
F15.5625
sg40
I130
sg41
F0.25
sg42
F131.80000000000001
sg43
I16
sg44
I31
sg45
I1075
sg46
F8.2375000000000007
sg47
VKevan Barlow
p272
ssg49
VKevan Barlow
p273
sg51
I1075
sa(dp274
g3
(dp275
g5
F5.9523809523809526
sg6
I12
sg7
F0
sg8
I1843
sg9
F4.8120104438642297
sg10
I21
sg11
F0.031331592689295036
sg12
I125
sg13
F0
sg14
I0
sg15
F108.41176470588235
sg16
F7.3529411764705879
sg17
I383
sg18
F0.70588235294117652
sg19
F289.80000000000001
sg20
I17
sg21
I39
sg22
I17463
sg23
F17.047058823529412
sg24
VAdrian Peterson
p276
ssg26
(dp277
g28
F14.105263157894736
sg29
I12
sg30
F0.071428571428571425
sg31
I1341
sg32
F5.6344537815126055
sg33
I19
sg34
F0.050420168067226892
sg35
I268
sg36
F0.052631578947368418
sg37
I1
sg38
F95.785714285714292
sg39
F19.142857142857142
sg40
I238
sg41
F0.8571428571428571
sg42
F257.89999999999998
sg43
I14
sg44
I28
sg45
I17463
sg46
F18.421428571428571
sg47
VAdrian Peterson
p278
ssg49
VAdrian Peterson
p279
sg51
I17463
sa(dp280
g3
(dp281
g5
F3.5454545454545454
sg6
I8
sg7
F0
sg8
I677
sg9
F3.3681592039800994
sg10
I11
sg11
F0.039800995024875621
sg12
I39
sg13
F0
sg14
I0
sg15
F56.416666666666664
sg16
F3.25
sg17
I201
sg18
F0.66666666666666663
sg19
F130.59999999999999
sg20
I12
sg21
I19
sg22
I17547
sg23
F10.883333333333333
sg24
VLawrence Phillips
p282
ssg26
(dp283
g28
F3.5
sg29
I4
sg30
F0.066666666666666666
sg31
I632
sg32
F3.2746113989637307
sg33
I8
sg34
F0.02072538860103627
sg35
I28
sg36
F0.125
sg37
I1
sg38
F42.133333333333333
sg39
F1.8666666666666667
sg40
I193
sg41
F0.26666666666666666
sg42
F104
sg43
I15
sg44
I12
sg45
I17547
sg46
F6.9333333333333336
sg47
VLawrence Phillips
p284
ssg49
VLawrence Phillips
p285
sg51
I17547
sa(dp286
g3
(dp287
g5
F5.2000000000000002
sg6
I2
sg7
F0
sg8
I436
sg9
F2.8684210526315788
sg10
I20
sg11
F0.013157894736842105
sg12
I104
sg13
F0
sg14
I0
sg15
F27.25
sg16
F6.5
sg17
I152
sg18
F0.125
sg19
F86
sg20
I16
sg21
I25
sg22
I17587
sg23
F5.375
sg24
VBernard Pierce
p288
ssg26
(dp289
g28
F6.875
sg29
I1
sg30
F0
sg31
I734
sg32
F4.9931972789115644
sg33
I8
sg34
F0.0068027210884353739
sg35
I55
sg36
F0
sg37
I0
sg38
F36.700000000000003
sg39
F2.75
sg40
I147
sg41
F0.050000000000000003
sg42
F92.900000000000006
sg43
I20
sg44
I12
sg45
I17587
sg46
F4.6450000000000005
sg47
VBernard Pierce
p290
ssg49
VBernard Pierce
p291
sg51
I17587
sa(dp292
g3
(dp293
g5
F6.333333333333333
sg6
I7
sg7
F0
sg8
I951
sg9
F3.8975409836065573
sg10
I18
sg11
F0.028688524590163935
sg12
I114
sg13
F0
sg14
I0
sg15
F59.4375
sg16
F7.125
sg17
I244
sg18
F0.4375
sg19
F166.5
sg20
I16
sg21
I21
sg22
I1248
sg23
F10.40625
sg24
VMario Bates
p294
ssg26
(dp295
g28
F7.75
sg29
I6
sg30
F0
sg31
I579
sg32
F3.8344370860927151
sg33
I8
sg34
F0.039735099337748346
sg35
I62
sg36
F0
sg37
I0
sg38
F52.636363636363633
sg39
F5.6363636363636367
sg40
I151
sg41
F0.54545454545454541
sg42
F108.09999999999999
sg43
I11
sg44
I9
sg45
I1248
sg46
F9.8272727272727263
sg47
VMario Bates
p296
ssg49
VMario Bates
p297
sg51
I1248
sa(dp298
g3
(dp299
g5
F8.2903225806451619
sg6
I4
sg7
F0.125
sg8
I595
sg9
F3.6280487804878048
sg10
I31
sg11
F0.024390243902439025
sg12
I257
sg13
F0.064516129032258063
sg14
I2
sg15
F37.1875
sg16
F16.0625
sg17
I164
sg18
F0.25
sg19
F152.19999999999999
sg20
I16
sg21
I0
sg22
I9501
sg23
F9.5124999999999993
sg24
VHerman Heard
p300
ssg26
(dp301
g28
F8.9199999999999999
sg29
I4
sg30
F0
sg31
I684
sg32
F4.1454545454545455
sg33
I25
sg34
F0.024242424242424242
sg35
I223
sg36
F0
sg37
I0
sg38
F42.75
sg39
F13.9375
sg40
I165
sg41
F0.25
sg42
F139.69999999999999
sg43
I16
sg44
I0
sg45
I9501
sg46
F8.7312499999999993
sg47
VHerman Heard
p302
ssg49
VHerman Heard
p303
sg51
I9501
sa(dp304
g3
(dp305
g5
F8.3076923076923084
sg6
I14
sg7
F0
sg8
I1659
sg9
F5.4039087947882738
sg10
I39
sg11
F0.045602605863192182
sg12
I324
sg13
F0
sg14
I0
sg15
F118.5
sg16
F23.142857142857142
sg17
I307
sg18
F1
sg19
F321.30000000000001
sg20
I14
sg21
I55
sg22
I17821
sg23
F22.949999999999999
sg24
VClinton Portis
p306
ssg26
(dp307
g28
F11.030303030303031
sg29
I15
sg30
F0.125
sg31
I1508
sg32
F5.5238095238095237
sg33
I33
sg34
F0.054945054945054944
sg35
I364
sg36
F0.060606060606060608
sg37
I2
sg38
F94.25
sg39
F22.75
sg40
I273
sg41
F0.9375
sg42
F322.19999999999999
sg43
I16
sg44
I49
sg45
I17821
sg46
F20.137499999999999
sg47
VClinton Portis
p308
ssg49
VClinton Portis
p309
sg51
I17821
sa(dp310
g3
(dp311
g5
F9.1666666666666661
sg6
I3
sg7
F0
sg8
I758
sg9
F5.0198675496688745
sg10
I18
sg11
F0.019867549668874173
sg12
I165
sg13
F0
sg14
I0
sg15
F58.307692307692307
sg16
F12.692307692307692
sg17
I151
sg18
F0.23076923076923078
sg19
F128.30000000000001
sg20
I13
sg21
I0
sg22
I17829
sg23
F9.8692307692307697
sg24
VDickie Post
p312
ssg26
(dp313
g28
F8.6875
sg29
I7
sg30
F0.076923076923076927
sg31
I663
sg32
F4.1180124223602483
sg33
I32
sg34
F0.043478260869565216
sg35
I278
sg36
F0.03125
sg37
I1
sg38
F51
sg39
F21.384615384615383
sg40
I161
sg41
F0.53846153846153844
sg42
F174.09999999999999
sg43
I13
sg44
I0
sg45
I17829
sg46
F13.392307692307693
sg47
VDickie Post
p314
ssg49
VDickie Post
p315
sg51
I17829
sa(dp316
g3
(dp317
g5
F9.931034482758621
sg6
I8
sg7
F0.0625
sg8
I883
sg9
F3.9596412556053813
sg10
I58
sg11
F0.035874439461883408
sg12
I576
sg13
F0.017241379310344827
sg14
I1
sg15
F55.1875
sg16
F36
sg17
I223
sg18
F0.5
sg19
F257.89999999999998
sg20
I16
sg21
I0
sg22
I1452
sg23
F16.118749999999999
sg24
VGreg Bell
p318
ssg26
(dp319
g28
F8.1470588235294112
sg29
I7
sg30
F0.0625
sg31
I1100
sg32
F4.1984732824427482
sg33
I34
sg34
F0.026717557251908396
sg35
I277
sg36
F0.029411764705882353
sg37
I1
sg38
F68.75
sg39
F17.3125
sg40
I262
sg41
F0.4375
sg42
F219.69999999999999
sg43
I16
sg44
I0
sg45
I1452
sg46
F13.731249999999999
sg47
VGreg Bell
p320
ssg49
VGreg Bell
p321
sg51
I1452
sa(dp322
g3
(dp323
g5
F7.8571428571428568
sg6
I3
sg7
F0
sg8
I520
sg9
F4.5614035087719298
sg10
I7
sg11
F0.026315789473684209
sg12
I55
sg13
F0
sg14
I0
sg15
F47.272727272727273
sg16
F5
sg17
I114
sg18
F0.27272727272727271
sg19
F82.5
sg20
I11
sg21
I12
sg22
I9653
sg23
F7.5
sg24
VDerrick Henry 
p324
ssg26
(dp325
g28
F10.538461538461538
sg29
I5
sg30
F0
sg31
I490
sg32
F4.4545454545454541
sg33
I13
sg34
F0.045454545454545456
sg35
I137
sg36
F0
sg37
I0
sg38
F32.666666666666664
sg39
F9.1333333333333329
sg40
I110
sg41
F0.33333333333333331
sg42
F105.7
sg43
I15
sg44
I15
sg45
I9653
sg46
F7.0466666666666669
sg47
VDerrick Henry 
p326
ssg49
VDerrick Henry 
p327
sg51
I9653
sa(dp328
g3
(dp329
g5
F7.1860465116279073
sg6
I13
sg7
F0.0625
sg8
I1438
sg9
F4.4246153846153842
sg10
I43
sg11
F0.040000000000000001
sg12
I309
sg13
F0.023255813953488372
sg14
I1
sg15
F89.875
sg16
F19.3125
sg17
I325
sg18
F0.8125
sg19
F301.69999999999999
sg20
I16
sg21
I59
sg22
I9665
sg23
F18.856249999999999
sg24
VTravis Henry 
p330
ssg26
(dp331
g28
F8.1363636363636367
sg29
I4
sg30
F0
sg31
I729
sg32
F3.4225352112676055
sg33
I22
sg34
F0.018779342723004695
sg35
I179
sg36
F0
sg37
I0
sg38
F56.07692307692308
sg39
F13.76923076923077
sg40
I213
sg41
F0.30769230769230771
sg42
F136.80000000000001
sg43
I13
sg44
I27
sg45
I9665
sg46
F10.523076923076925
sg47
VTravis Henry 
p332
ssg49
VTravis Henry 
p333
sg51
I9665
sa(dp334
g3
(dp335
g5
F8.1333333333333329
sg6
I6
sg7
F0
sg8
I679
sg9
F3.6702702702702701
sg10
I15
sg11
F0.032432432432432434
sg12
I122
sg13
F0
sg14
I0
sg15
F56.583333333333336
sg16
F10.166666666666666
sg17
I185
sg18
F0.5
sg19
F131.09999999999999
sg20
I12
sg21
I0
sg22
I1477
sg23
F10.924999999999999
sg24
VRicky Bell
p336
ssg26
(dp337
g28
F8
sg29
I1
sg30
F0
sg31
I436
sg32
F2.9459459459459461
sg33
I11
sg34
F0.0067567567567567571
sg35
I88
sg36
F0
sg37
I0
sg38
F39.636363636363633
sg39
F8
sg40
I148
sg41
F0.090909090909090912
sg42
F69.400000000000006
sg43
I11
sg44
I0
sg45
I1477
sg46
F6.3090909090909095
sg47
VRicky Bell
p338
ssg49
VRicky Bell
p339
sg51
I1477
sa(dp340
g3
(dp341
g5
F9.5555555555555554
sg6
I6
sg7
F0
sg8
I378
sg9
F3.098360655737705
sg10
I9
sg11
F0.049180327868852458
sg12
I86
sg13
F0
sg14
I0
sg15
F27
sg16
F6.1428571428571432
sg17
I122
sg18
F0.42857142857142855
sg19
F91.400000000000006
sg20
I14
sg21
I0
sg22
I12543
sg23
F6.5285714285714294
sg24
VDoug Kotar
p342
ssg26
(dp343
g28
F5.7000000000000002
sg29
I4
sg30
F0
sg31
I396
sg32
F3.7358490566037736
sg33
I10
sg34
F0.037735849056603772
sg35
I57
sg36
F0
sg37
I0
sg38
F33
sg39
F4.75
sg40
I106
sg41
F0.33333333333333331
sg42
F79.299999999999997
sg43
I12
sg44
I0
sg45
I12543
sg46
F6.6083333333333334
sg47
VDoug Kotar
p344
ssg49
VDoug Kotar
p345
sg51
I12543
sa(dp346
g3
(dp347
g5
F9.486486486486486
sg6
I5
sg7
F0.0625
sg8
I1296
sg9
F5.0823529411764703
sg10
I37
sg11
F0.019607843137254902
sg12
I351
sg13
F0.027027027027027029
sg14
I1
sg15
F81
sg16
F21.9375
sg17
I255
sg18
F0.3125
sg19
F237.69999999999999
sg20
I16
sg21
I41
sg22
I1545
sg23
F14.856249999999999
sg24
VMichael Bennett
p348
ssg26
(dp349
g28
F7.7931034482758621
sg29
I2
sg30
F0.076923076923076927
sg31
I682
sg32
F3.9651162790697674
sg33
I29
sg34
F0.011627906976744186
sg35
I226
sg36
F0.034482758620689655
sg37
I1
sg38
F52.46153846153846
sg39
F17.384615384615383
sg40
I172
sg41
F0.15384615384615385
sg42
F137.80000000000001
sg43
I13
sg44
I38
sg45
I1545
sg46
F10.600000000000001
sg47
VMichael Bennett
p350
ssg49
VMichael Bennett
p351
sg51
I1545
sa(dp352
g3
(dp353
g5
F9.6666666666666661
sg6
I3
sg7
F0
sg8
I303
sg9
F2.9705882352941178
sg10
I12
sg11
F0.029411764705882353
sg12
I116
sg13
F0
sg14
I0
sg15
F25.25
sg16
F9.6666666666666661
sg17
I102
sg18
F0.25
sg19
F71.900000000000006
sg20
I12
sg21
I14
sg22
I9786
sg23
F5.9916666666666671
sg24
VSkip Hicks
p354
ssg26
(dp355
g28
F5.75
sg29
I8
sg30
F0
sg31
I433
sg32
F3.5491803278688523
sg33
I4
sg34
F0.065573770491803282
sg35
I23
sg36
F0
sg37
I0
sg38
F48.111111111111114
sg39
F2.5555555555555554
sg40
I122
sg41
F0.88888888888888884
sg42
F97.599999999999994
sg43
I9
sg44
I8
sg45
I9786
sg46
F10.844444444444443
sg47
VSkip Hicks
p356
ssg49
VSkip Hicks
p357
sg51
I9786
sa(dp358
g3
(dp359
g5
F7.7450980392156863
sg6
I5
sg7
F0.14285714285714285
sg8
I686
sg9
F4.0116959064327489
sg10
I51
sg11
F0.029239766081871343
sg12
I395
sg13
F0.039215686274509803
sg14
I2
sg15
F49
sg16
F28.214285714285715
sg17
I171
sg18
F0.35714285714285715
sg19
F201.09999999999999
sg20
I14
sg21
I68
sg22
I1603
sg23
F14.364285714285714
sg24
VGiovani Bernard
p360
ssg26
(dp361
g28
F9.3174603174603181
sg29
I5
sg30
F0.17647058823529413
sg31
I740
sg32
F4.0659340659340657
sg33
I63
sg34
F0.027472527472527472
sg35
I587
sg36
F0.047619047619047616
sg37
I3
sg38
F43.529411764705884
sg39
F34.529411764705884
sg40
I182
sg41
F0.29411764705882354
sg42
F243.69999999999999
sg43
I17
sg44
I82
sg45
I1603
sg46
F14.335294117647058
sg47
VGiovani Bernard
p362
ssg49
VGiovani Bernard
p363
sg51
I1603
sa(dp364
g3
(dp365
g5
F6.8985507246376816
sg6
I10
sg7
F0
sg8
I704
sg9
F4.5128205128205128
sg10
I69
sg11
F0.064102564102564097
sg12
I476
sg13
F0
sg14
I0
sg15
F39.111111111111114
sg16
F26.444444444444443
sg17
I156
sg18
F0.55555555555555558
sg19
F247
sg20
I18
sg21
I87
sg22
I9812
sg23
F13.722222222222221
sg24
VTim Hightower
p366
ssg26
(dp367
g28
F6.8684210526315788
sg29
I11
sg30
F0.10000000000000001
sg31
I531
sg32
F2.9831460674157304
sg33
I38
sg34
F0.061797752808988762
sg35
I261
sg36
F0.052631578947368418
sg37
I2
sg38
F26.550000000000001
sg39
F13.050000000000001
sg40
I178
sg41
F0.55000000000000004
sg42
F195.19999999999999
sg43
I20
sg44
I57
sg45
I9812
sg46
F9.7599999999999998
sg47
VTim Hightower
p368
ssg49
VTim Hightower
p369
sg51
I9812
sa(dp370
g3
(dp371
g5
F7.3076923076923075
sg6
I4
sg7
F0
sg8
I577
sg9
F3.7712418300653594
sg10
I13
sg11
F0.026143790849673203
sg12
I95
sg13
F0
sg14
I0
sg15
F44.384615384615387
sg16
F7.3076923076923075
sg17
I153
sg18
F0.30769230769230771
sg19
F104.2
sg20
I13
sg21
I0
sg22
I9827
sg23
F8.0153846153846153
sg24
VCalvin Hill
p372
ssg26
(dp373
g28
F11.380952380952381
sg29
I8
sg30
F0
sg31
I959
sg32
F4.5235849056603774
sg33
I21
sg34
F0.037735849056603772
sg35
I239
sg36
F0
sg37
I0
sg38
F68.5
sg39
F17.071428571428573
sg40
I212
sg41
F0.5714285714285714
sg42
F188.80000000000001
sg43
I14
sg44
I0
sg45
I9827
sg46
F13.485714285714286
sg47
VCalvin Hill
p374
ssg49
VCalvin Hill
p375
sg51
I9827
sa(dp376
g3
(dp377
g5
F14.052631578947368
sg6
I4
sg7
F0.066666666666666666
sg8
I891
sg9
F4.0871559633027523
sg10
I19
sg11
F0.01834862385321101
sg12
I267
sg13
F0.052631578947368418
sg14
I1
sg15
F59.399999999999999
sg16
F17.800000000000001
sg17
I218
sg18
F0.26666666666666666
sg19
F164.80000000000001
sg20
I15
sg21
I0
sg22
I1650
sg23
F10.986666666666668
sg24
VJim Bertelsen
p378
ssg26
(dp379
g28
F11.413793103448276
sg29
I5
sg30
F0.071428571428571425
sg31
I581
sg32
F4.7235772357723578
sg33
I29
sg34
F0.04065040650406504
sg35
I331
sg36
F0.034482758620689655
sg37
I1
sg38
F41.5
sg39
F23.642857142857142
sg40
I123
sg41
F0.35714285714285715
sg42
F156.19999999999999
sg43
I14
sg44
I0
sg45
I1650
sg46
F11.157142857142857
sg47
VJim Bertelsen
p380
ssg49
VJim Bertelsen
p381
sg51
I1650
sa(dp382
g3
(dp383
g5
F6.4285714285714288
sg6
I1
sg7
F0
sg8
I667
sg9
F4.3032258064516133
sg10
I7
sg11
F0.0064516129032258064
sg12
I45
sg13
F0
sg14
I0
sg15
F41.6875
sg16
F2.8125
sg17
I155
sg18
F0.0625
sg19
F84.200000000000003
sg20
I16
sg21
I14
sg22
I9845
sg23
F5.2625000000000002
sg24
VGreg Hill
p384
ssg26
(dp385
g28
F6.0588235294117645
sg29
I1
sg30
F0
sg31
I588
sg32
F4.1118881118881117
sg33
I17
sg34
F0.006993006993006993
sg35
I103
sg36
F0
sg37
I0
sg38
F34.588235294117645
sg39
F6.0588235294117645
sg40
I143
sg41
F0.058823529411764705
sg42
F92.099999999999994
sg43
I17
sg44
I23
sg45
I9845
sg46
F5.4176470588235288
sg47
VGreg Hill
p386
ssg49
VGreg Hill
p387
sg51
I9845
sa(dp388
g3
(dp389
g5
F5.8888888888888893
sg6
I12
sg7
F0.058823529411764705
sg8
I844
sg9
F3.5914893617021275
sg10
I18
sg11
F0.05106382978723404
sg12
I106
sg13
F0.055555555555555552
sg14
I1
sg15
F49.647058823529413
sg16
F6.2352941176470589
sg17
I235
sg18
F0.70588235294117652
sg19
F191
sg20
I17
sg21
I23
sg22
I9856
sg23
F11.235294117647058
sg24
VJeremy Hill
p390
ssg26
(dp391
g28
F7.9629629629629628
sg29
I10
sg30
F0
sg31
I1171
sg32
F4.9829787234042557
sg33
I27
sg34
F0.042553191489361701
sg35
I215
sg36
F0
sg37
I0
sg38
F68.882352941176464
sg39
F12.647058823529411
sg40
I235
sg41
F0.58823529411764708
sg42
F225.59999999999999
sg43
I17
sg44
I32
sg45
I9856
sg46
F13.270588235294117
sg47
VJeremy Hill
p392
ssg49
VJeremy Hill
p393
sg51
I9856
sa(dp394
g3
(dp395
g5
F10.62962962962963
sg6
I2
sg7
F0.16666666666666666
sg8
I390
sg9
F4.6428571428571432
sg10
I27
sg11
F0.023809523809523808
sg12
I287
sg13
F0.037037037037037035
sg14
I1
sg15
F65
sg16
F47.833333333333336
sg17
I84
sg18
F0.33333333333333331
sg19
F112.7
sg20
I6
sg21
I40
sg22
I1665
sg23
F18.783333333333335
sg24
VJahvid Best
p396
ssg26
(dp397
g28
F8.3965517241379306
sg29
I4
sg30
F0.125
sg31
I555
sg32
F3.2456140350877192
sg33
I58
sg34
F0.023391812865497075
sg35
I487
sg36
F0.034482758620689655
sg37
I2
sg38
F34.6875
sg39
F30.4375
sg40
I171
sg41
F0.25
sg42
F198.19999999999999
sg43
I16
sg44
I80
sg45
I1665
sg46
F12.387499999999999
sg47
VJahvid Best
p398
ssg49
VJahvid Best
p399
sg51
I1665
sa(dp400
g3
(dp401
g5
F9.4516129032258061
sg6
I3
sg7
F0.0625
sg8
I1025
sg9
F3.2131661442006267
sg10
I31
sg11
F0.0094043887147335428
sg12
I293
sg13
F0.032258064516129031
sg14
I1
sg15
F64.0625
sg16
F18.3125
sg17
I319
sg18
F0.1875
sg19
F186.80000000000001
sg20
I16
sg21
I45
sg22
I1679
sg23
F11.675000000000001
sg24
VJerome Bettis
p402
ssg26
(dp403
g28
F9.384615384615385
sg29
I7
sg30
F0
sg31
I1429
sg32
F4.8605442176870746
sg33
I26
sg34
F0.023809523809523808
sg35
I244
sg36
F0
sg37
I0
sg38
F89.3125
sg39
F15.25
sg40
I294
sg41
F0.4375
sg42
F235.30000000000001
sg43
I16
sg44
I34
sg45
I1679
sg46
F14.706250000000001
sg47
VJerome Bettis
p404
ssg49
VJerome Bettis
p405
sg51
I1679
sa(dp406
g3
(dp407
g5
F11.16
sg6
I7
sg7
F0.076923076923076927
sg8
I547
sg9
F4.1755725190839694
sg10
I25
sg11
F0.053435114503816793
sg12
I279
sg13
F0.040000000000000001
sg14
I1
sg15
F42.07692307692308
sg16
F21.46153846153846
sg17
I131
sg18
F0.53846153846153844
sg19
F155.59999999999999
sg20
I13
sg21
I0
sg22
I9904
sg23
F11.969230769230769
sg24
VDalton Hilliard
p408
ssg26
(dp409
g28
F6.2941176470588234
sg29
I5
sg30
F0
sg31
I425
sg32
F3.5123966942148761
sg33
I17
sg34
F0.041322314049586778
sg35
I107
sg36
F0
sg37
I0
sg38
F26.5625
sg39
F6.6875
sg40
I121
sg41
F0.3125
sg42
F100.2
sg43
I16
sg44
I0
sg45
I9904
sg46
F6.2625000000000002
sg47
VDalton Hilliard
p410
ssg49
VDalton Hilliard
p411
sg51
I9904
sa(dp412
g3
(dp413
g5
F9.545454545454545
sg6
I1
sg7
F0.066666666666666666
sg8
I406
sg9
F4.3191489361702127
sg10
I33
sg11
F0.010638297872340425
sg12
I315
sg13
F0.030303030303030304
sg14
I1
sg15
F27.066666666666666
sg16
F21
sg17
I94
sg18
F0.066666666666666666
sg19
F117.09999999999999
sg20
I15
sg21
I45
sg22
I18152
sg23
F7.8066666666666666
sg24
VBobby Rainey
p414
ssg26
(dp415
g28
F3.0666666666666669
sg29
I5
sg30
F0.066666666666666666
sg31
I566
sg32
F3.7733333333333334
sg33
I15
sg34
F0.033333333333333333
sg35
I46
sg36
F0.066666666666666666
sg37
I1
sg38
F37.733333333333334
sg39
F3.0666666666666669
sg40
I150
sg41
F0.33333333333333331
sg42
F112.2
sg43
I15
sg44
I19
sg45
I18152
sg46
F7.4800000000000004
sg47
VBobby Rainey
p416
ssg49
VBobby Rainey
p417
sg51
I18152
sa(dp418
g3
(dp419
g5
F6.2105263157894735
sg6
I0
sg7
F0.083333333333333329
sg8
I546
sg9
F3.5225806451612902
sg10
I19
sg11
F0
sg12
I118
sg13
F0.052631578947368418
sg14
I1
sg15
F45.5
sg16
F9.8333333333333339
sg17
I155
sg18
F0
sg19
F91.400000000000006
sg20
I12
sg21
I0
sg22
I10021
sg23
F7.6166666666666671
sg24
VMike Hogan 
p420
ssg26
(dp421
g28
F5.9333333333333336
sg29
I0
sg30
F0
sg31
I561
sg32
F4.5609756097560972
sg33
I15
sg34
F0
sg35
I89
sg36
F0
sg37
I0
sg38
F70.125
sg39
F11.125
sg40
I123
sg41
F0
sg42
F80
sg43
I8
sg44
I0
sg45
I10021
sg46
F10
sg47
VMike Hogan 
p422
ssg49
VMike Hogan 
p423
sg51
I10021
sa(dp424
g3
(dp425
g5
F6.9285714285714288
sg6
I4
sg7
F0
sg8
I544
sg9
F3.7006802721088436
sg10
I14
sg11
F0.027210884353741496
sg12
I97
sg13
F0
sg14
I0
sg15
F49.454545454545453
sg16
F8.8181818181818183
sg17
I147
sg18
F0.36363636363636365
sg19
F102.09999999999999
sg20
I11
sg21
I19
sg22
I18248
sg23
F9.2818181818181813
sg24
VThomas Rawls
p426
ssg26
(dp427
g28
F8.4444444444444446
sg29
I4
sg30
F0.076923076923076927
sg31
I830
sg32
F5.6462585034013602
sg33
I9
sg34
F0.027210884353741496
sg35
I76
sg36
F0.1111111111111111
sg37
I1
sg38
F63.846153846153847
sg39
F5.8461538461538458
sg40
I147
sg41
F0.30769230769230771
sg42
F129.59999999999999
sg43
I13
sg44
I11
sg45
I18248
sg46
F9.9692307692307693
sg47
VThomas Rawls
p428
ssg49
VThomas Rawls
p429
sg51
I18248
sa(dp430
g3
(dp431
g5
F9.8666666666666671
sg6
I5
sg7
F0
sg8
I781
sg9
F4.2445652173913047
sg10
I15
sg11
F0.02717391304347826
sg12
I148
sg13
F0
sg14
I0
sg15
F55.785714285714285
sg16
F10.571428571428571
sg17
I184
sg18
F0.35714285714285715
sg19
F137.90000000000001
sg20
I14
sg21
I25
sg22
I1890
sg23
F9.8499999999999996
sg24
VLeGarrette Blount
p432
ssg26
(dp433
g28
F2.7999999999999998
sg29
I6
sg30
F0
sg31
I1007
sg32
F5.0099502487562191
sg33
I5
sg34
F0.029850746268656716
sg35
I14
sg36
F0
sg37
I0
sg38
F77.461538461538467
sg39
F1.0769230769230769
sg40
I201
sg41
F0.46153846153846156
sg42
F143.09999999999999
sg43
I13
sg44
I7
sg45
I1890
sg46
F11.007692307692308
sg47
VLeGarrette Blount
p434
ssg49
VLeGarrette Blount
p435
sg51
I1890
sa(dp436
g3
(dp437
g5
F7.2666666666666666
sg6
I2
sg7
F0.0625
sg8
I797
sg9
F3.9849999999999999
sg10
I15
sg11
F0.01
sg12
I109
sg13
F0.066666666666666666
sg14
I1
sg15
F49.8125
sg16
F6.8125
sg17
I200
sg18
F0.125
sg19
F123.59999999999999
sg20
I16
sg21
I16
sg22
I1894
sg23
F7.7249999999999996
sg24
VAlfred Blue
p438
ssg26
(dp439
g28
F7.5333333333333332
sg29
I2
sg30
F0.0625
sg31
I528
sg32
F3.1242603550295858
sg33
I15
sg34
F0.011834319526627219
sg35
I113
sg36
F0.066666666666666666
sg37
I1
sg38
F33
sg39
F7.0625
sg40
I169
sg41
F0.125
sg42
F97.099999999999994
sg43
I16
sg44
I18
sg45
I1894
sg46
F6.0687499999999996
sg47
VAlfred Blue
p440
ssg49
VAlfred Blue
p441
sg51
I1894
sa(dp442
g3
(dp443
g5
F6.6470588235294121
sg6
I4
sg7
F0.058823529411764705
sg8
I581
sg9
F2.9343434343434343
sg10
I17
sg11
F0.020202020202020204
sg12
I113
sg13
F0.058823529411764705
sg14
I1
sg15
F34.176470588235297
sg16
F6.6470588235294121
sg17
I198
sg18
F0.23529411764705882
sg19
F116.40000000000001
sg20
I17
sg21
I23
sg22
I10118
sg23
F6.8470588235294123
sg24
VDarick Holmes
p444
ssg26
(dp445
g28
F8.9166666666666661
sg29
I5
sg30
F0
sg31
I799
sg32
F4.1832460732984291
sg33
I24
sg34
F0.026178010471204188
sg35
I214
sg36
F0
sg37
I0
sg38
F44.388888888888886
sg39
F11.888888888888889
sg40
I191
sg41
F0.27777777777777779
sg42
F155.30000000000001
sg43
I18
sg44
I34
sg45
I10118
sg46
F8.6277777777777782
sg47
VDarick Holmes
p446
ssg49
VDarick Holmes
p447
sg51
I10118
sa(dp448
g3
(dp449
g5
F9.6981132075471699
sg6
I1
sg7
F0
sg8
I358
sg9
F4.904109589041096
sg10
I53
sg11
F0.013698630136986301
sg12
I514
sg13
F0
sg14
I0
sg15
F22.375
sg16
F32.125
sg17
I73
sg18
F0.0625
sg19
F146.19999999999999
sg20
I16
sg21
I74
sg22
I11246
sg23
F9.1374999999999993
sg24
VDuke Johnson
p450
ssg26
(dp451
g28
F8.7540983606557372
sg29
I0
sg30
F0.125
sg31
I379
sg32
F3.6442307692307692
sg33
I61
sg34
F0
sg35
I534
sg36
F0.032786885245901641
sg37
I2
sg38
F23.6875
sg39
F33.375
sg40
I104
sg41
F0
sg42
F164.30000000000001
sg43
I16
sg44
I74
sg45
I11246
sg46
F10.268750000000001
sg47
VDuke Johnson
p452
ssg49
VDuke Johnson
p453
sg51
I11246
sa(dp454
g3
(dp455
g5
F10.724137931034482
sg6
I3
sg7
F0.17647058823529413
sg8
I633
sg9
F3.6379310344827585
sg10
I29
sg11
F0.017241379310344827
sg12
I311
sg13
F0.10344827586206896
sg14
I3
sg15
F37.235294117647058
sg16
F18.294117647058822
sg17
I174
sg18
F0.17647058823529413
sg19
F159.40000000000001
sg20
I17
sg21
I0
sg22
I10136
sg23
F9.3764705882352946
sg24
VRobert Holmes
p456
ssg26
(dp457
g28
F9.6500000000000004
sg29
I7
sg30
F0
sg31
I912
sg32
F4.8770053475935828
sg33
I20
sg34
F0.037433155080213901
sg35
I193
sg36
F0
sg37
I0
sg38
F70.15384615384616
sg39
F14.846153846153847
sg40
I187
sg41
F0.53846153846153844
sg42
F172.5
sg43
I13
sg44
I0
sg45
I10136
sg46
F13.26923076923077
sg47
VRobert Holmes
p458
ssg49
VRobert Holmes
p459
sg51
I10136
sa(dp460
g3
(dp461
g5
F9.3829787234042552
sg6
I4
sg7
F0.071428571428571425
sg8
I802
sg9
F4.9506172839506171
sg10
I47
sg11
F0.024691358024691357
sg12
I441
sg13
F0.021276595744680851
sg14
I1
sg15
F57.285714285714285
sg16
F31.5
sg17
I162
sg18
F0.2857142857142857
sg19
F201.30000000000001
sg20
I14
sg21
I0
sg22
I24906
sg23
F14.37857142857143
sg24
VRickey Young
p462
ssg26
(dp463
g28
F7.9047619047619051
sg29
I5
sg30
F0.071428571428571425
sg31
I577
sg32
F4.1811594202898554
sg33
I21
sg34
F0.036231884057971016
sg35
I166
sg36
F0.047619047619047616
sg37
I1
sg38
F41.214285714285715
sg39
F11.857142857142858
sg40
I138
sg41
F0.35714285714285715
sg42
F131.30000000000001
sg43
I14
sg44
I0
sg45
I24906
sg46
F9.3785714285714299
sg47
VRickey Young
p464
ssg49
VRickey Young
p465
sg51
I24906
sa(dp466
g3
(dp467
g5
F10.0625
sg6
I5
sg7
F0.0625
sg8
I1053
sg9
F5.1116504854368934
sg10
I48
sg11
F0.024271844660194174
sg12
I483
sg13
F0.020833333333333332
sg14
I1
sg15
F65.8125
sg16
F30.1875
sg17
I206
sg18
F0.3125
sg19
F237.59999999999999
sg20
I16
sg21
I0
sg22
I18367
sg23
F14.85
sg24
VTony Reed
p468
ssg26
(dp469
g28
F10.416666666666666
sg29
I2
sg30
F0
sg31
I505
sg32
F4.0079365079365079
sg33
I12
sg34
F0.015873015873015872
sg35
I125
sg36
F0
sg37
I0
sg38
F36.071428571428569
sg39
F8.9285714285714288
sg40
I126
sg41
F0.14285714285714285
sg42
F87
sg43
I14
sg44
I0
sg45
I18367
sg46
F6.2142857142857144
sg47
VTony Reed
p470
ssg49
VTony Reed
p471
sg51
I18367
sa(dp472
g3
(dp473
g5
F17.083333333333332
sg6
I10
sg7
F0.375
sg8
I442
sg9
F3.7142857142857144
sg10
I12
sg11
F0.084033613445378158
sg12
I205
sg13
F0.25
sg14
I3
sg15
F55.25
sg16
F25.625
sg17
I119
sg18
F1.25
sg19
F154.69999999999999
sg20
I8
sg21
I0
sg22
I2020
sg23
F19.337499999999999
sg24
VEmerson Boozer
p474
ssg26
(dp475
g28
F16.625
sg29
I5
sg30
F0
sg31
I455
sg32
F4.6907216494845363
sg33
I8
sg34
F0.051546391752577317
sg35
I133
sg36
F0
sg37
I0
sg38
F37.916666666666664
sg39
F11.083333333333334
sg40
I97
sg41
F0.41666666666666669
sg42
F96.799999999999997
sg43
I12
sg44
I0
sg45
I2020
sg46
F8.0666666666666664
sg47
VEmerson Boozer
p476
ssg49
VEmerson Boozer
p477
sg51
I2020
sa(dp478
g3
(dp479
g5
F7.083333333333333
sg6
I2
sg7
F0.10000000000000001
sg8
I262
sg9
F2.7010309278350517
sg10
I24
sg11
F0.020618556701030927
sg12
I170
sg13
F0.041666666666666664
sg14
I1
sg15
F26.199999999999999
sg16
F17
sg17
I97
sg18
F0.20000000000000001
sg19
F85.200000000000003
sg20
I10
sg21
I0
sg22
I2076
sg23
F8.5199999999999996
sg24
VLee Bouggess
p480
ssg26
(dp481
g28
F8.0199999999999996
sg29
I2
sg30
F0.14285714285714285
sg31
I401
sg32
F2.5220125786163523
sg33
I50
sg34
F0.012578616352201259
sg35
I401
sg36
F0.040000000000000001
sg37
I2
sg38
F28.642857142857142
sg39
F28.642857142857142
sg40
I159
sg41
F0.14285714285714285
sg42
F154.19999999999999
sg43
I14
sg44
I0
sg45
I2076
sg46
F11.014285714285714
sg47
VLee Bouggess
p482
ssg49
VLee Bouggess
p483
sg51
I2076
sa(dp484
g3
(dp485
g5
F5.6875
sg6
I5
sg7
F0
sg8
I847
sg9
F4.2562814070351758
sg10
I16
sg11
F0.025125628140703519
sg12
I91
sg13
F0
sg14
I0
sg15
F77
sg16
F8.2727272727272734
sg17
I199
sg18
F0.45454545454545453
sg19
F139.80000000000001
sg20
I11
sg21
I23
sg22
I10295
sg23
F12.709090909090911
sg24
VJordan Howard
p486
ssg26
(dp487
g28
F10.275862068965518
sg29
I6
sg30
F0.066666666666666666
sg31
I1313
sg32
F5.2103174603174605
sg33
I29
sg34
F0.023809523809523808
sg35
I298
sg36
F0.034482758620689655
sg37
I1
sg38
F87.533333333333331
sg39
F19.866666666666667
sg40
I252
sg41
F0.40000000000000002
sg42
F232.09999999999999
sg43
I15
sg44
I50
sg45
I10295
sg46
F15.473333333333333
sg47
VJordan Howard
p488
ssg49
VJordan Howard
p489
sg51
I10295
sa(dp490
g3
(dp491
g5
F6.2666666666666666
sg6
I1
sg7
F0.0625
sg8
I357
sg9
F3.3055555555555554
sg10
I30
sg11
F0.0092592592592592587
sg12
I188
sg13
F0.033333333333333333
sg14
I1
sg15
F22.3125
sg16
F11.75
sg17
I108
sg18
F0.0625
sg19
F96.5
sg20
I16
sg21
I0
sg22
I10311
sg23
F6.03125
sg24
VWilliam Howard
p492
ssg26
(dp493
g28
F8.8181818181818183
sg29
I1
sg30
F0
sg31
I452
sg32
F3.9304347826086956
sg33
I11
sg34
F0.0086956521739130436
sg35
I97
sg36
F0
sg37
I0
sg38
F30.133333333333333
sg39
F6.4666666666666668
sg40
I115
sg41
F0.066666666666666666
sg42
F71.900000000000006
sg43
I15
sg44
I0
sg45
I10311
sg46
F4.7933333333333339
sg47
VWilliam Howard
p494
ssg49
VWilliam Howard
p495
sg51
I10311
sa(dp496
g3
(dp497
g5
F7.8571428571428568
sg6
I11
sg7
F0
sg8
I1207
sg9
F3.6355421686746987
sg10
I14
sg11
F0.03313253012048193
sg12
I110
sg13
F0
sg14
I0
sg15
F75.4375
sg16
F6.875
sg17
I332
sg18
F0.6875
sg19
F211.69999999999999
sg20
I16
sg21
I29
sg22
I18535
sg23
F13.231249999999999
sg24
VErrict Rhett
p498
ssg26
(dp499
g28
F5.4090909090909092
sg29
I7
sg30
F0
sg31
I1011
sg32
F3.5598591549295775
sg33
I22
sg34
F0.02464788732394366
sg35
I119
sg36
F0
sg37
I0
sg38
F63.1875
sg39
F7.4375
sg40
I284
sg41
F0.4375
sg42
F177
sg43
I16
sg44
I30
sg45
I18535
sg46
F11.0625
sg47
VErrict Rhett
p500
ssg49
VErrict Rhett
p501
sg51
I18535
sa(dp502
g3
(dp503
g5
F7.916666666666667
sg6
I9
sg7
F0.17647058823529413
sg8
I754
sg9
F3.8865979381443299
sg10
I24
sg11
F0.046391752577319589
sg12
I190
sg13
F0.125
sg14
I3
sg15
F44.352941176470587
sg16
F11.176470588235293
sg17
I194
sg18
F0.52941176470588236
sg19
F190.40000000000001
sg20
I17
sg21
I34
sg22
I362
sg23
F11.200000000000001
sg24
VMike Alstott
p504
ssg26
(dp505
g28
F8.569230769230769
sg29
I3
sg30
F0.1875
sg31
I377
sg32
F3.9270833333333335
sg33
I65
sg34
F0.03125
sg35
I557
sg36
F0.046153846153846156
sg37
I3
sg38
F23.5625
sg39
F34.8125
sg40
I96
sg41
F0.1875
sg42
F194.40000000000001
sg43
I16
sg44
I81
sg45
I362
sg46
F12.15
sg47
VMike Alstott
p506
ssg49
VMike Alstott
p507
sg51
I362
sa(dp508
g3
(dp509
g5
F8.7586206896551726
sg6
I9
sg7
F0.055555555555555552
sg8
I1565
sg9
F5.4152249134948098
sg10
I87
sg11
F0.031141868512110725
sg12
I762
sg13
F0.011494252873563218
sg14
I1
sg15
F86.944444444444443
sg16
F42.333333333333336
sg17
I289
sg18
F0.5
sg19
F379.69999999999999
sg20
I18
sg21
I114
sg22
I18567
sg23
F21.094444444444445
sg24
VRay Rice
p510
ssg26
(dp511
g28
F8.7777777777777786
sg29
I0
sg30
F0
sg31
I456
sg32
F4.2222222222222223
sg33
I36
sg34
F0
sg35
I316
sg36
F0
sg37
I0
sg38
F30.399999999999999
sg39
F21.066666666666666
sg40
I108
sg41
F0
sg42
F113.2
sg43
I15
sg44
I47
sg45
I18567
sg46
F7.5466666666666669
sg47
VRay Rice
p512
ssg49
VRay Rice
p513
sg51
I18567
sa(dp514
g3
(dp515
g5
F9.0285714285714285
sg6
I3
sg7
F0.055555555555555552
sg8
I564
sg9
F2.9375
sg10
I35
sg11
F0.015625
sg12
I316
sg13
F0.028571428571428571
sg14
I1
sg15
F31.333333333333332
sg16
F17.555555555555557
sg17
I192
sg18
F0.16666666666666666
sg19
F147
sg20
I18
sg21
I52
sg22
I18630
sg23
F8.1666666666666661
sg24
VTrent Richardson 
p516
ssg26
(dp517
g28
F7.1960784313725492
sg29
I11
sg30
F0.066666666666666666
sg31
I950
sg32
F3.5580524344569286
sg33
I51
sg34
F0.041198501872659173
sg35
I367
sg36
F0.019607843137254902
sg37
I1
sg38
F63.333333333333336
sg39
F24.466666666666665
sg40
I267
sg41
F0.73333333333333328
sg42
F254.69999999999999
sg43
I15
sg44
I70
sg45
I18630
sg46
F16.98
sg47
VTrent Richardson 
p518
ssg49
VTrent Richardson 
p519
sg51
I18630
sa(dp520
g3
(dp521
g5
F10.952380952380953
sg6
I7
sg7
F0.083333333333333329
sg8
I944
sg9
F4.5603864734299515
sg10
I21
sg11
F0.033816425120772944
sg12
I230
sg13
F0.047619047619047616
sg14
I1
sg15
F78.666666666666671
sg16
F19.166666666666668
sg17
I207
sg18
F0.58333333333333337
sg19
F186.40000000000001
sg20
I12
sg21
I0
sg22
I18676
sg23
F15.533333333333333
sg24
VJohn Riggins
p522
ssg26
(dp523
g28
F6.416666666666667
sg29
I1
sg30
F0.14285714285714285
sg31
I769
sg32
F4.2722222222222221
sg33
I36
sg34
F0.0055555555555555558
sg35
I231
sg36
F0.055555555555555552
sg37
I2
sg38
F54.928571428571431
sg39
F16.5
sg40
I180
sg41
F0.071428571428571425
sg42
F154
sg43
I14
sg44
I0
sg45
I18676
sg46
F11
sg47
VJohn Riggins
p524
ssg49
VJohn Riggins
p525
sg51
I18676
sa(dp526
g3
(dp527
g5
F8.764705882352942
sg6
I8
sg7
F0
sg8
I437
sg9
F4.3700000000000001
sg10
I17
sg11
F0.080000000000000002
sg12
I149
sg13
F0
sg14
I0
sg15
F31.214285714285715
sg16
F10.642857142857142
sg17
I100
sg18
F0.5714285714285714
sg19
F123.59999999999999
sg20
I14
sg21
I0
sg22
I18679
sg23
F8.8285714285714274
sg24
VGerald Riggs
p528
ssg26
(dp529
g28
F8.0399999999999991
sg29
I5
sg30
F0
sg31
I337
sg32
F3.8735632183908044
sg33
I25
sg34
F0.057471264367816091
sg35
I201
sg36
F0
sg37
I0
sg38
F33.700000000000003
sg39
F20.100000000000001
sg40
I87
sg41
F0.5
sg42
F108.8
sg43
I10
sg44
I0
sg45
I18679
sg46
F10.879999999999999
sg47
VGerald Riggs
p530
ssg49
VGerald Riggs
p531
sg51
I18679
sa(dp532
g3
(dp533
g5
F4.833333333333333
sg6
I5
sg7
F0
sg8
I602
sg9
F3.858974358974359
sg10
I6
sg11
F0.032051282051282048
sg12
I29
sg13
F0
sg14
I0
sg15
F37.625
sg16
F1.8125
sg17
I156
sg18
F0.3125
sg19
F99.099999999999994
sg20
I16
sg21
I10
sg22
I10635
sg23
F6.1937499999999996
sg24
VMark Ingram
p534
ssg26
(dp535
g28
F4.1818181818181817
sg29
I5
sg30
F0
sg31
I474
sg32
F3.8852459016393444
sg33
I11
sg34
F0.040983606557377046
sg35
I46
sg36
F0
sg37
I0
sg38
F47.399999999999999
sg39
F4.5999999999999996
sg40
I122
sg41
F0.5
sg42
F93
sg43
I10
sg44
I13
sg45
I10635
sg46
F9.3000000000000007
sg47
VMark Ingram
p536
ssg49
VMark Ingram
p537
sg51
I10635
sa(dp538
g3
(dp539
g5
F12.380952380952381
sg6
I8
sg7
F0.066666666666666666
sg8
I1036
sg9
F3.6097560975609757
sg10
I21
sg11
F0.027874564459930314
sg12
I260
sg13
F0.047619047619047616
sg14
I1
sg15
F69.066666666666663
sg16
F17.333333333333332
sg17
I287
sg18
F0.53333333333333333
sg19
F204.59999999999999
sg20
I15
sg21
I0
sg22
I2456
sg23
F13.639999999999999
sg24
VJohn Brockington 
p540
ssg26
(dp541
g28
F7
sg29
I4
sg30
F0.071428571428571425
sg31
I1105
sg32
F5.1157407407407405
sg33
I14
sg34
F0.018518518518518517
sg35
I98
sg36
F0.071428571428571425
sg37
I1
sg38
F78.928571428571431
sg39
F7
sg40
I216
sg41
F0.2857142857142857
sg42
F164.30000000000001
sg43
I14
sg44
I0
sg45
I2456
sg46
F11.735714285714286
sg47
VJohn Brockington 
p542
ssg49
VJohn Brockington 
p543
sg51
I2456
sa(dp544
g3
(dp545
g5
F5.9375
sg6
I7
sg7
F0
sg8
I459
sg9
F4.935483870967742
sg10
I16
sg11
F0.075268817204301078
sg12
I95
sg13
F0
sg14
I0
sg15
F41.727272727272727
sg16
F8.6363636363636367
sg17
I93
sg18
F0.63636363636363635
sg19
F113.40000000000001
sg20
I11
sg21
I0
sg22
I2497
sg23
F10.30909090909091
sg24
VJames Brooks
p546
ssg26
(dp547
g28
F7.0192307692307692
sg29
I3
sg30
F0.3125
sg31
I567
sg32
F4.8050847457627119
sg33
I52
sg34
F0.025423728813559324
sg35
I365
sg36
F0.096153846153846159
sg37
I5
sg38
F35.4375
sg39
F22.8125
sg40
I118
sg41
F0.1875
sg42
F193.19999999999999
sg43
I16
sg44
I0
sg45
I2497
sg46
F12.074999999999999
sg47
VJames Brooks
p548
ssg49
VJames Brooks
p549
sg51
I2497
sa(dp550
g3
(dp551
g5
F5.2307692307692308
sg6
I2
sg7
F0
sg8
I297
sg9
F2.9700000000000002
sg10
I13
sg11
F0.02
sg12
I68
sg13
F0
sg14
I0
sg15
F22.846153846153847
sg16
F5.2307692307692308
sg17
I100
sg18
F0.15384615384615385
sg19
F61.5
sg20
I13
sg21
I21
sg22
I2508
sg23
F4.7307692307692308
sg24
VReggie Brooks
p552
ssg26
(dp553
g28
F8.8571428571428577
sg29
I3
sg30
F0
sg31
I1063
sg32
F4.7668161434977581
sg33
I21
sg34
F0.013452914798206279
sg35
I186
sg36
F0
sg37
I0
sg38
F66.4375
sg39
F11.625
sg40
I223
sg41
F0.1875
sg42
F163.90000000000001
sg43
I16
sg44
I35
sg45
I2508
sg46
F10.24375
sg47
VReggie Brooks
p554
ssg49
VReggie Brooks
p555
sg51
I2508
sa(dp556
g3
(dp557
g5
I0
sg6
I1
sg7
F0
sg8
I444
sg9
F4.3960396039603964
sg10
I0
sg11
F0.0099009900990099011
sg12
I0
sg13
I0
sg14
I0
sg15
F55.5
sg16
F0
sg17
I101
sg18
F0.125
sg19
F50.399999999999999
sg20
I8
sg21
I0
sg22
I10701
sg23
F6.2999999999999998
sg24
VChris Ivory
p558
ssg26
(dp559
g28
F17
sg29
I5
sg30
F0
sg31
I716
sg32
F5.226277372262774
sg33
I1
sg34
F0.036496350364963501
sg35
I17
sg36
F0
sg37
I0
sg38
F59.666666666666664
sg39
F1.4166666666666667
sg40
I137
sg41
F0.41666666666666669
sg42
F104.3
sg43
I12
sg44
I1
sg45
I10701
sg46
F8.6916666666666664
sg47
VChris Ivory
p560
ssg49
VChris Ivory
p561
sg51
I10701
sa(dp562
g3
(dp563
g5
F5.2000000000000002
sg6
I4
sg7
F0
sg8
I489
sg9
F3.0562499999999999
sg10
I20
sg11
F0.025000000000000001
sg12
I104
sg13
F0
sg14
I0
sg15
F34.928571428571431
sg16
F7.4285714285714288
sg17
I160
sg18
F0.2857142857142857
sg19
F103.3
sg20
I14
sg21
I0
sg22
I18900
sg23
F7.3785714285714281
sg24
VPaul Robinson
p564
ssg26
(dp565
g28
F5.333333333333333
sg29
I8
sg30
F0.071428571428571425
sg31
I1023
sg32
F4.2983193277310923
sg33
I24
sg34
F0.033613445378151259
sg35
I128
sg36
F0.041666666666666664
sg37
I1
sg38
F73.071428571428569
sg39
F9.1428571428571423
sg40
I238
sg41
F0.5714285714285714
sg42
F193.09999999999999
sg43
I14
sg44
I0
sg45
I18900
sg46
F13.792857142857143
sg47
VPaul Robinson
p566
ssg49
VPaul Robinson
p567
sg51
I18900
sa(dp568
g3
(dp569
g5
F9.7272727272727266
sg6
I3
sg7
F0.0625
sg8
I489
sg9
F3.3493150684931505
sg10
I44
sg11
F0.020547945205479451
sg12
I428
sg13
F0.022727272727272728
sg14
I1
sg15
F30.5625
sg16
F26.75
sg17
I146
sg18
F0.1875
sg19
F159.69999999999999
sg20
I16
sg21
I57
sg22
I2601
sg23
F9.9812499999999993
sg24
VDerek Brown
p570
ssg26
(dp571
g28
F8.0952380952380949
sg29
I2
sg30
F0.076923076923076927
sg31
I705
sg32
F3.9166666666666665
sg33
I21
sg34
F0.011111111111111112
sg35
I170
sg36
F0.047619047619047616
sg37
I1
sg38
F54.230769230769234
sg39
F13.076923076923077
sg40
I180
sg41
F0.15384615384615385
sg42
F126.5
sg43
I13
sg44
I32
sg45
I2601
sg46
F9.7307692307692299
sg47
VDerek Brown
p572
ssg49
VDerek Brown
p573
sg51
I2601
sa(dp574
g3
(dp575
g5
F10.25
sg6
I2
sg7
F0
sg8
I497
sg9
F3.8527131782945738
sg10
I20
sg11
F0.015503875968992248
sg12
I205
sg13
F0
sg14
I0
sg15
F38.230769230769234
sg16
F15.76923076923077
sg17
I129
sg18
F0.15384615384615385
sg19
F102.2
sg20
I13
sg21
I28
sg22
I2605
sg23
F7.861538461538462
sg24
VDonald Brown
p576
ssg26
(dp577
g28
F13.928571428571429
sg29
I3
sg30
F0
sg31
I327
sg32
F3.478723404255319
sg33
I14
sg34
F0.031914893617021274
sg35
I195
sg36
F0
sg37
I0
sg38
F23.357142857142858
sg39
F13.928571428571429
sg40
I94
sg41
F0.21428571428571427
sg42
F84.200000000000003
sg43
I14
sg44
I18
sg45
I2605
sg46
F6.0142857142857142
sg47
VDonald Brown
p578
ssg49
VDonald Brown
p579
sg51
I2605
sa(dp580
g3
(dp581
g5
F5.25
sg6
I3
sg7
F0
sg8
I535
sg9
F4.3852459016393439
sg10
I4
sg11
F0.024590163934426229
sg12
I21
sg13
F0
sg14
I0
sg15
F89.166666666666671
sg16
F3.5
sg17
I122
sg18
F0.5
sg19
F77.599999999999994
sg20
I6
sg21
I0
sg22
I18995
sg23
F12.933333333333332
sg24
VGeorge Rogers
p582
ssg26
(dp583
g28
F7.875
sg29
I13
sg30
F0
sg31
I1674
sg32
F4.4285714285714288
sg33
I16
sg34
F0.03439153439153439
sg35
I126
sg36
F0
sg37
I0
sg38
F104.625
sg39
F7.875
sg40
I378
sg41
F0.8125
sg42
F274
sg43
I16
sg44
I0
sg45
I18995
sg46
F17.125
sg47
VGeorge Rogers
p584
ssg49
VGeorge Rogers
p585
sg51
I18995
sa(dp586
g3
(dp587
g5
F13.449999999999999
sg6
I10
sg7
F0.076923076923076927
sg8
I876
sg9
F3.7435897435897436
sg10
I20
sg11
F0.042735042735042736
sg12
I269
sg13
F0.050000000000000003
sg14
I1
sg15
F67.384615384615387
sg16
F20.692307692307693
sg17
I234
sg18
F0.76923076923076927
sg19
F200.5
sg20
I13
sg21
I0
sg22
I19029
sg23
F15.423076923076923
sg24
VJohnny Roland
p588
ssg26
(dp589
g28
F10.142857142857142
sg29
I5
sg30
F0
sg31
I695
sg32
F3.6197916666666665
sg33
I21
sg34
F0.026041666666666668
sg35
I213
sg36
F0
sg37
I0
sg38
F49.642857142857146
sg39
F15.214285714285714
sg40
I192
sg41
F0.35714285714285715
sg42
F141.80000000000001
sg43
I14
sg44
I0
sg45
I19029
sg46
F10.12857142857143
sg47
VJohnny Roland
p590
ssg49
VJohnny Roland
p591
sg51
I19029
sa(dp592
g3
(dp593
g5
F7.441860465116279
sg6
I8
sg7
F0.13333333333333333
sg8
I1046
sg9
F4.1181102362204722
sg10
I43
sg11
F0.031496062992125984
sg12
I320
sg13
F0.046511627906976744
sg14
I2
sg15
F69.733333333333334
sg16
F21.333333333333332
sg17
I254
sg18
F0.53333333333333333
sg19
F239.59999999999999
sg20
I15
sg21
I55
sg22
I10839
sg23
F15.973333333333333
sg24
VSteven Jackson
p594
ssg26
(dp595
g28
F8.7272727272727266
sg29
I4
sg30
F0
sg31
I741
sg32
F4.8431372549019605
sg33
I22
sg34
F0.026143790849673203
sg35
I192
sg36
F0
sg37
I0
sg38
F46.3125
sg39
F12
sg40
I153
sg41
F0.25
sg42
F139.30000000000001
sg43
I16
sg44
I29
sg45
I10839
sg46
F8.7062500000000007
sg47
VSteven Jackson
p596
ssg49
VSteven Jackson
p597
sg51
I10839
sa(dp598
g3
(dp599
g5
F9.2162162162162158
sg6
I5
sg7
F0.15384615384615385
sg8
I1125
sg9
F4.7468354430379751
sg10
I37
sg11
F0.021097046413502109
sg12
I341
sg13
F0.054054054054054057
sg14
I2
sg15
F86.538461538461533
sg16
F26.23076923076923
sg17
I237
sg18
F0.38461538461538464
sg19
F225.59999999999999
sg20
I13
sg21
I0
sg22
I2667
sg23
F17.353846153846153
sg24
VLarry Brown
p600
ssg26
(dp601
g28
F8.882352941176471
sg29
I4
sg30
F0
sg31
I888
sg32
F4.3960396039603964
sg33
I34
sg34
F0.019801980198019802
sg35
I302
sg36
F0
sg37
I0
sg38
F63.428571428571431
sg39
F21.571428571428573
sg40
I202
sg41
F0.2857142857142857
sg42
F177
sg43
I14
sg44
I0
sg45
I2667
sg46
F12.642857142857142
sg47
VLarry Brown
p602
ssg49
VLarry Brown
p603
sg51
I2667
sa(dp604
g3
(dp605
g5
F6.333333333333333
sg6
I7
sg7
F0
sg8
I1202
sg9
F4.1736111111111107
sg10
I24
sg11
F0.024305555555555556
sg12
I152
sg13
F0
sg14
I0
sg15
F80.13333333333334
sg16
F10.133333333333333
sg17
I288
sg18
F0.46666666666666667
sg19
F201.40000000000001
sg20
I15
sg21
I0
sg22
I10455
sg23
F13.426666666666668
sg24
VBobby Humphrey
p606
ssg26
(dp607
g28
F8.2592592592592595
sg29
I7
sg30
F0.052631578947368418
sg31
I1320
sg32
F3.9759036144578315
sg33
I27
sg34
F0.021084337349397589
sg35
I223
sg36
F0.037037037037037035
sg37
I1
sg38
F69.473684210526315
sg39
F11.736842105263158
sg40
I332
sg41
F0.36842105263157893
sg42
F229.30000000000001
sg43
I19
sg44
I4
sg45
I10455
sg46
F12.06842105263158
sg47
VBobby Humphrey
p608
ssg49
VBobby Humphrey
p609
sg51
I10455
sa(dp610
g3
(dp611
g5
F9.5
sg6
I13
sg7
F0.29411764705882354
sg8
I1816
sg9
F4.4509803921568629
sg10
I66
sg11
F0.031862745098039214
sg12
I627
sg13
F0.07575757575757576
sg14
I5
sg15
F106.82352941176471
sg16
F36.882352941176471
sg17
I408
sg18
F0.76470588235294112
sg19
F418.30000000000001
sg20
I17
sg21
I91
sg22
I10902
sg23
F24.605882352941176
sg24
VEdgerrin James
p612
ssg26
(dp613
g28
F9.4285714285714288
sg29
I13
sg30
F0.23529411764705882
sg31
I1609
sg32
F4.1362467866323911
sg33
I63
sg34
F0.033419023136246784
sg35
I594
sg36
F0.063492063492063489
sg37
I4
sg38
F94.647058823529406
sg39
F34.941176470588232
sg40
I389
sg41
F0.76470588235294112
sg42
F385.30000000000001
sg43
I17
sg44
I86
sg45
I10902
sg46
F22.664705882352941
sg47
VEdgerrin James
p614
ssg49
VEdgerrin James
p615
sg51
I10902
sa(dp616
g3
(dp617
g5
F9.8181818181818183
sg6
I9
sg7
F0.11764705882352941
sg8
I926
sg9
F4.1339285714285712
sg10
I66
sg11
F0.040178571428571432
sg12
I648
sg13
F0.030303030303030304
sg14
I2
sg15
F54.470588235294116
sg16
F38.117647058823529
sg17
I224
sg18
F0.52941176470588236
sg19
F289.39999999999998
sg20
I17
sg21
I0
sg22
I2739
sg23
F17.023529411764706
sg24
VTed Brown
p618
ssg26
(dp619
g28
F6.354838709677419
sg29
I1
sg30
F0
sg31
I551
sg32
F4.2384615384615385
sg33
I31
sg34
F0.0076923076923076927
sg35
I197
sg36
F0
sg37
I0
sg38
F39.357142857142854
sg39
F14.071428571428571
sg40
I130
sg41
F0.071428571428571425
sg42
F111.8
sg43
I14
sg44
I0
sg45
I2739
sg46
F7.9857142857142858
sg47
VTed Brown
p620
ssg49
VTed Brown
p621
sg51
I2739
sa(dp622
g3
(dp623
g5
F7.5
sg6
I4
sg7
F0
sg8
I662
sg9
F3.3266331658291457
sg10
I24
sg11
F0.020100502512562814
sg12
I180
sg13
F0
sg14
I0
sg15
F50.92307692307692
sg16
F13.846153846153847
sg17
I199
sg18
F0.30769230769230771
sg19
F132.19999999999999
sg20
I13
sg21
I0
sg22
I19191
sg23
F10.169230769230769
sg24
VMike Rozier
p624
ssg26
(dp625
g28
F10.666666666666666
sg29
I8
sg30
F0
sg31
I462
sg32
F3.4736842105263159
sg33
I9
sg34
F0.060150375939849621
sg35
I96
sg36
F0
sg37
I0
sg38
F33
sg39
F6.8571428571428568
sg40
I133
sg41
F0.5714285714285714
sg42
F112.8
sg43
I14
sg44
I0
sg45
I19191
sg46
F8.0571428571428569
sg47
VMike Rozier
p626
ssg49
VMike Rozier
p627
sg51
I19191
sa(dp628
g3
(dp629
g5
F11.604166666666666
sg6
I1
sg7
F0.42857142857142855
sg8
I455
sg9
F5
sg10
I48
sg11
F0.01098901098901099
sg12
I557
sg13
F0.125
sg14
I6
sg15
F32.5
sg16
F39.785714285714285
sg17
I91
sg18
F0.071428571428571425
sg19
F191.19999999999999
sg20
I14
sg21
I0
sg22
I2855
sg23
F13.657142857142857
sg24
VKelvin Bryant
p630
ssg26
(dp631
g28
F10.232142857142858
sg29
I4
sg30
F0.30769230769230771
sg31
I346
sg32
F3.9770114942528734
sg33
I56
sg34
F0.045977011494252873
sg35
I573
sg36
F0.071428571428571425
sg37
I4
sg38
F26.615384615384617
sg39
F44.07692307692308
sg40
I87
sg41
F0.30769230769230771
sg42
F195.90000000000001
sg43
I13
sg44
I0
sg45
I2855
sg46
F15.069230769230769
sg47
VKelvin Bryant
p632
ssg49
VKelvin Bryant
p633
sg51
I2855
sa(dp634
g3
(dp635
g5
F2.1818181818181817
sg6
I2
sg7
F0
sg8
I390
sg9
F3.1707317073170733
sg10
I11
sg11
F0.016260162601626018
sg12
I24
sg13
F0
sg14
I0
sg15
F35.454545454545453
sg16
F2.1818181818181817
sg17
I123
sg18
F0.18181818181818182
sg19
F64.400000000000006
sg20
I11
sg21
I14
sg22
I19284
sg23
F5.8545454545454554
sg24
VLeonard Russell
p636
ssg26
(dp637
g28
F4.5
sg29
I4
sg30
F0
sg31
I959
sg32
F3.6052631578947367
sg33
I18
sg34
F0.015037593984962405
sg35
I81
sg36
F0
sg37
I0
sg38
F59.9375
sg39
F5.0625
sg40
I266
sg41
F0.25
sg42
F146
sg43
I16
sg44
I0
sg45
I19284
sg46
F9.125
sg47
VLeonard Russell
p638
ssg49
VLeonard Russell
p639
sg51
I19284
sa(dp640
g3
(dp641
g5
F9.1600000000000001
sg6
I8
sg7
F0.15384615384615385
sg8
I741
sg9
F4.875
sg10
I25
sg11
F0.052631578947368418
sg12
I229
sg13
F0.080000000000000002
sg14
I2
sg15
F57
sg16
F17.615384615384617
sg17
I152
sg18
F0.61538461538461542
sg19
F182
sg20
I13
sg21
I0
sg22
I2937
sg23
F14
sg24
VNorm Bulaich
p642
ssg26
(dp643
g28
F10.666666666666666
sg29
I5
sg30
F0
sg31
I641
sg32
F3.142156862745098
sg33
I12
sg34
F0.024509803921568627
sg35
I128
sg36
F0
sg37
I0
sg38
F42.733333333333334
sg39
F8.5333333333333332
sg40
I204
sg41
F0.33333333333333331
sg42
F118.90000000000001
sg43
I15
sg44
I0
sg45
I2937
sg46
F7.9266666666666667
sg47
VNorm Bulaich
p644
ssg49
VNorm Bulaich
p645
sg51
I2937
sa(dp646
g3
(dp647
g5
F6.3499999999999996
sg6
I1
sg7
F0.14285714285714285
sg8
I446
sg9
F3.4307692307692306
sg10
I20
sg11
F0.0076923076923076927
sg12
I127
sg13
F0.10000000000000001
sg14
I2
sg15
F31.857142857142858
sg16
F9.0714285714285712
sg17
I130
sg18
F0.071428571428571425
sg19
F95.299999999999997
sg20
I14
sg21
I0
sg22
I2941
sg23
F6.8071428571428569
sg24
VRonnie Bull
p648
ssg26
(dp649
g28
F10.67741935483871
sg29
I1
sg30
F0
sg31
I363
sg32
F3.2123893805309733
sg33
I31
sg34
F0.0088495575221238937
sg35
I331
sg36
F0
sg37
I0
sg38
F25.928571428571427
sg39
F23.642857142857142
sg40
I113
sg41
F0.071428571428571425
sg42
F106.40000000000001
sg43
I14
sg44
I0
sg45
I2941
sg46
F7.6000000000000005
sg47
VRonnie Bull
p650
ssg49
VRonnie Bull
p651
sg51
I2941
sa(dp652
g3
(dp653
g5
F1.3333333333333333
sg6
I2
sg7
F0
sg8
I415
sg9
F3.7387387387387387
sg10
I12
sg11
F0.018018018018018018
sg12
I16
sg13
F0
sg14
I0
sg15
F31.923076923076923
sg16
F1.2307692307692308
sg17
I111
sg18
F0.15384615384615385
sg19
F67.099999999999994
sg20
I13
sg21
I0
sg22
I11136
sg23
F5.161538461538461
sg24
VBilly Joe
p654
ssg26
(dp655
g28
F6
sg29
I4
sg30
F0.071428571428571425
sg31
I646
sg32
F4.1948051948051948
sg33
I15
sg34
F0.025974025974025976
sg35
I90
sg36
F0.066666666666666666
sg37
I1
sg38
F46.142857142857146
sg39
F6.4285714285714288
sg40
I154
sg41
F0.2857142857142857
sg42
F118.59999999999999
sg43
I14
sg44
I0
sg45
I11136
sg46
F8.4714285714285715
sg47
VBilly Joe
p656
ssg49
VBilly Joe
p657
sg51
I11136
sa(dp658
g3
(dp659
g5
F6.2857142857142856
sg6
I3
sg7
F0.083333333333333329
sg8
I496
sg9
F3.4685314685314683
sg10
I7
sg11
F0.02097902097902098
sg12
I44
sg13
F0.14285714285714285
sg14
I1
sg15
F41.333333333333336
sg16
F3.6666666666666665
sg17
I143
sg18
F0.25
sg19
F85
sg20
I12
sg21
I8
sg22
I19376
sg23
F7.083333333333333
sg24
VRashaan Salaam 
p660
ssg26
(dp661
g28
F8
sg29
I10
sg30
F0
sg31
I1074
sg32
F3.6283783783783785
sg33
I7
sg34
F0.033783783783783786
sg35
I56
sg36
F0
sg37
I0
sg38
F67.125
sg39
F3.5
sg40
I296
sg41
F0.625
sg42
F180
sg43
I16
sg44
I13
sg45
I19376
sg46
F11.25
sg47
VRashaan Salaam 
p662
ssg49
VRashaan Salaam 
p663
sg51
I19376
sa(dp664
g3
(dp665
g5
F10.06
sg6
I14
sg7
F0.125
sg8
I2006
sg9
F5.6033519553072626
sg10
I50
sg11
F0.039106145251396648
sg12
I503
sg13
F0.040000000000000001
sg14
I2
sg15
F125.375
sg16
F31.4375
sg17
I358
sg18
F0.875
sg19
F396.89999999999998
sg20
I16
sg21
I71
sg22
I11208
sg23
F24.806249999999999
sg24
VChris Johnson 
p666
ssg26
(dp667
g28
F6.5454545454545459
sg29
I10
sg30
F0.0625
sg31
I1300
sg32
F4.9618320610687023
sg33
I44
sg34
F0.038167938931297711
sg35
I288
sg36
F0.022727272727272728
sg37
I1
sg38
F81.25
sg39
F18
sg40
I262
sg41
F0.625
sg42
F268.80000000000001
sg43
I16
sg44
I63
sg45
I11208
sg46
F16.800000000000001
sg47
VChris Johnson 
p668
ssg49
VChris Johnson 
p669
sg51
I11208
sa(dp670
g3
(dp671
g5
F8
sg6
I6
sg7
F0
sg8
I350
sg9
F3.5353535353535355
sg10
I6
sg11
F0.060606060606060608
sg12
I48
sg13
F0
sg14
I0
sg15
F25
sg16
F3.4285714285714284
sg17
I99
sg18
F0.42857142857142855
sg19
F81.799999999999997
sg20
I14
sg21
I0
sg22
I20986
sg23
F5.8428571428571425
sg24
VTim Spencer
p672
ssg26
(dp673
g28
F12.272727272727273
sg29
I10
sg30
F0
sg31
I478
sg32
F3.8548387096774195
sg33
I11
sg34
F0.080645161290322578
sg35
I135
sg36
F0
sg37
I0
sg38
F29.875
sg39
F8.4375
sg40
I124
sg41
F0.625
sg42
F132.30000000000001
sg43
I16
sg44
I0
sg45
I20986
sg46
F8.2687500000000007
sg47
VTim Spencer
p674
ssg49
VTim Spencer
p675
sg51
I20986
sa(dp676
g3
(dp677
g5
F10.987500000000001
sg6
I16
sg7
F0.25
sg8
I1239
sg9
F4.2286689419795218
sg10
I80
sg11
F0.054607508532423209
sg12
I879
sg13
F0.050000000000000003
sg14
I4
sg15
F77.4375
sg16
F54.9375
sg17
I293
sg18
F1
sg19
F411.80000000000001
sg20
I16
sg21
I120
sg22
I11230
sg23
F25.737500000000001
sg24
VDavid Johnson
p678
ssg26
(dp679
g28
F11.137254901960784
sg29
I9
sg30
F0.22222222222222221
sg31
I676
sg32
F4.3612903225806452
sg33
I51
sg34
F0.058064516129032261
sg35
I568
sg36
F0.078431372549019607
sg37
I4
sg38
F37.555555555555557
sg39
F31.555555555555557
sg40
I155
sg41
F0.5
sg42
F253.40000000000001
sg43
I18
sg44
I75
sg45
I11230
sg46
F14.077777777777778
sg47
VDavid Johnson
p680
ssg49
VDavid Johnson
p681
sg51
I11230
sa(dp682
g3
(dp683
g5
F13.333333333333334
sg6
I13
sg7
F0.1875
sg8
I1304
sg9
F5.113725490196078
sg10
I36
sg11
F0.050980392156862744
sg12
I480
sg13
F0.083333333333333329
sg14
I3
sg15
F81.5
sg16
F30
sg17
I255
sg18
F0.8125
sg19
F310.39999999999998
sg20
I16
sg21
I0
sg22
I19437
sg23
F19.399999999999999
sg24
VBarry Sanders 
p684
ssg26
(dp685
g28
F11.75
sg29
I14
sg30
F0
sg31
I1470
sg32
F5.25
sg33
I24
sg34
F0.050000000000000003
sg35
I282
sg36
F0
sg37
I0
sg38
F98
sg39
F18.800000000000001
sg40
I280
sg41
F0.93333333333333335
sg42
F283.19999999999999
sg43
I15
sg44
I0
sg45
I19437
sg46
F18.879999999999999
sg47
VBarry Sanders 
p686
ssg49
VBarry Sanders 
p687
sg51
I19437
sa(dp688
g3
(dp689
g5
F6.1764705882352944
sg6
I3
sg7
F0
sg8
I589
sg9
F4.7886178861788622
sg10
I17
sg11
F0.024390243902439025
sg12
I105
sg13
F0
sg14
I0
sg15
F36.8125
sg16
F6.5625
sg17
I123
sg18
F0.1875
sg19
F104.40000000000001
sg20
I16
sg21
I19
sg22
I3113
sg23
F6.5250000000000004
sg24
VMichael Bush
p690
ssg26
(dp691
g28
F8.526315789473685
sg29
I3
sg30
F0
sg31
I421
sg32
F4.4315789473684211
sg33
I19
sg34
F0.031578947368421054
sg35
I162
sg36
F0
sg37
I0
sg38
F28.066666666666666
sg39
F10.800000000000001
sg40
I95
sg41
F0.20000000000000001
sg42
F95.299999999999997
sg43
I15
sg44
I30
sg45
I3113
sg46
F6.3533333333333335
sg47
VMichael Bush
p692
ssg49
VMichael Bush
p693
sg51
I3113
sa(dp694
g3
(dp695
g5
F5.7123287671232879
sg6
I4
sg7
F0.16666666666666666
sg8
I581
sg9
F3.7006369426751591
sg10
I73
sg11
F0.025477707006369428
sg12
I417
sg13
F0.027397260273972601
sg14
I2
sg15
F48.416666666666664
sg16
F34.75
sg17
I157
sg18
F0.33333333333333331
sg19
F208.80000000000001
sg20
I12
sg21
I98
sg22
I3116
sg23
F17.400000000000002
sg24
VReggie Bush
p696
ssg26
(dp697
g28
F9.1428571428571423
sg29
I7
sg30
F0.16666666666666666
sg31
I636
sg32
F3.7192982456140351
sg33
I98
sg34
F0.040935672514619881
sg35
I896
sg36
F0.030612244897959183
sg37
I3
sg38
F35.333333333333336
sg39
F49.777777777777779
sg40
I171
sg41
F0.3888888888888889
sg42
F311.19999999999999
sg43
I18
sg44
I136
sg45
I3116
sg46
F17.288888888888888
sg47
VReggie Bush
p698
ssg49
VReggie Bush
p699
sg51
I3116
sa(dp700
g3
(dp701
g5
F7.7586206896551726
sg6
I4
sg7
F0.13333333333333333
sg8
I666
sg9
F3.3979591836734695
sg10
I29
sg11
F0.020408163265306121
sg12
I225
sg13
F0.068965517241379309
sg14
I2
sg15
F44.399999999999999
sg16
F15
sg17
I196
sg18
F0.26666666666666666
sg19
F154.09999999999999
sg20
I15
sg21
I0
sg22
I11314
sg23
F10.273333333333333
sg24
VJohnny Johnson
p702
ssg26
(dp703
g28
F9.6400000000000006
sg29
I5
sg30
F0
sg31
I926
sg32
F3.9572649572649574
sg33
I25
sg34
F0.021367521367521368
sg35
I241
sg36
F0
sg37
I0
sg38
F66.142857142857139
sg39
F17.214285714285715
sg40
I234
sg41
F0.35714285714285715
sg42
F171.69999999999999
sg43
I14
sg44
I0
sg45
I11314
sg46
F12.264285714285714
sg47
VJohnny Johnson
p704
ssg49
VJohnny Johnson
p705
sg51
I11314
sa(dp706
g3
(dp707
g5
F8.9622641509433958
sg6
I4
sg7
F0.11764705882352941
sg8
I1351
sg9
F4.8422939068100357
sg10
I53
sg11
F0.014336917562724014
sg12
I475
sg13
F0.037735849056603772
sg14
I2
sg15
F79.470588235294116
sg16
F27.941176470588236
sg17
I279
sg18
F0.23529411764705882
sg19
F271.60000000000002
sg20
I17
sg21
I0
sg22
I523
sg23
F15.976470588235296
sg24
VWilliam Andrews
p708
ssg26
(dp709
g28
F7.9230769230769234
sg29
I3
sg30
F0.13333333333333333
sg31
I1023
sg32
F4.2803347280334725
sg33
I39
sg34
F0.012552301255230125
sg35
I309
sg36
F0.05128205128205128
sg37
I2
sg38
F68.200000000000003
sg39
F20.600000000000001
sg40
I239
sg41
F0.20000000000000001
sg42
F202.19999999999999
sg43
I15
sg44
I0
sg45
I523
sg46
F13.479999999999999
sg47
VWilliam Andrews
p710
ssg49
VWilliam Andrews
p711
sg51
I523
sa(dp712
g3
(dp713
g5
F7.3125
sg6
I8
sg7
F0
sg8
I1225
sg9
F4.6226415094339623
sg10
I16
sg11
F0.030188679245283019
sg12
I117
sg13
F0
sg14
I0
sg15
F87.5
sg16
F8.3571428571428577
sg17
I265
sg18
F0.5714285714285714
sg19
F198.19999999999999
sg20
I14
sg21
I0
sg22
I3182
sg23
F14.157142857142857
sg24
VMarion Butts
p714
ssg26
(dp715
g28
F3
sg29
I9
sg30
F0
sg31
I683
sg32
F4.0176470588235293
sg33
I7
sg34
F0.052941176470588235
sg35
I21
sg36
F0
sg37
I0
sg38
F45.533333333333331
sg39
F1.3999999999999999
sg40
I170
sg41
F0.59999999999999998
sg42
F131.40000000000001
sg43
I15
sg44
I0
sg45
I3182
sg46
F8.7599999999999998
sg47
VMarion Butts
p716
ssg49
VMarion Butts
p717
sg51
I3182
sa(dp718
g3
(dp719
g5
F13.147058823529411
sg6
I8
sg7
F0.14285714285714285
sg8
I1231
sg9
F5.3755458515283845
sg10
I34
sg11
F0.034934497816593885
sg12
I447
sg13
F0.058823529411764705
sg14
I2
sg15
F87.928571428571431
sg16
F31.928571428571427
sg17
I229
sg18
F0.5714285714285714
sg19
F261.80000000000001
sg20
I14
sg21
I0
sg22
I19574
sg23
F18.699999999999999
sg24
VGale Sayers
p720
ssg26
(dp721
g28
F17.482758620689655
sg29
I14
sg30
F0.42857142857142855
sg31
I867
sg32
F5.2228915662650603
sg33
I29
sg34
F0.084337349397590355
sg35
I507
sg36
F0.20689655172413793
sg37
I6
sg38
F61.928571428571431
sg39
F36.214285714285715
sg40
I166
sg41
F1
sg42
F286.39999999999998
sg43
I14
sg44
I0
sg45
I19574
sg46
F20.457142857142856
sg47
VGale Sayers
p722
ssg49
VGale Sayers
p723
sg51
I19574
sa(dp724
g3
(dp725
g5
F7.612903225806452
sg6
I7
sg7
F0
sg8
I762
sg9
F4.2333333333333334
sg10
I31
sg11
F0.03888888888888889
sg12
I236
sg13
F0
sg14
I0
sg15
F47.625
sg16
F14.75
sg17
I180
sg18
F0.4375
sg19
F172.80000000000001
sg20
I16
sg21
I0
sg22
I11385
sg23
F10.800000000000001
sg24
VPete Johnson
p726
ssg26
(dp727
g28
F9.8000000000000007
sg29
I4
sg30
F0
sg31
I585
sg32
F3.8235294117647061
sg33
I5
sg34
F0.026143790849673203
sg35
I49
sg36
F0
sg37
I0
sg38
F41.785714285714285
sg39
F3.5
sg40
I153
sg41
F0.2857142857142857
sg42
F92.400000000000006
sg43
I14
sg44
I0
sg45
I11385
sg46
F6.6000000000000005
sg47
VPete Johnson
p728
ssg49
VPete Johnson
p729
sg51
I11385
sa(dp730
g3
(dp731
g5
F10.145833333333334
sg6
I8
sg7
F0.2857142857142857
sg8
I1027
sg9
F3.9049429657794676
sg10
I48
sg11
F0.030418250950570342
sg12
I487
sg13
F0.083333333333333329
sg14
I4
sg15
F73.357142857142861
sg16
F34.785714285714285
sg17
I263
sg18
F0.5714285714285714
sg19
F271.39999999999998
sg20
I14
sg21
I0
sg22
I11405
sg23
F19.385714285714283
sg24
VRon Johnson
p732
ssg26
(dp733
g28
F6.833333333333333
sg29
I7
sg30
F0
sg31
I467
sg32
F3.3357142857142859
sg33
I24
sg34
F0.050000000000000003
sg35
I164
sg36
F0
sg37
I0
sg38
F29.1875
sg39
F10.25
sg40
I140
sg41
F0.4375
sg42
F129.09999999999999
sg43
I16
sg44
I0
sg45
I11405
sg46
F8.0687499999999996
sg47
VRon Johnson
p734
ssg49
VRon Johnson
p735
sg51
I11405
sa(dp736
g3
(dp737
g5
F6.2222222222222223
sg6
I20
sg7
F0
sg8
I1762
sg9
F4.3940149625935163
sg10
I18
sg11
F0.049875311720698257
sg12
I112
sg13
F0
sg14
I0
sg15
F97.888888888888886
sg16
F6.2222222222222223
sg17
I401
sg18
F1.1111111111111112
sg19
F325.39999999999998
sg20
I18
sg21
I0
sg22
I3324
sg23
F18.077777777777776
sg24
VEarl Campbell
p738
ssg26
(dp739
g28
F5
sg29
I15
sg30
F0
sg31
I1714
sg32
F4.546419098143236
sg33
I15
sg34
F0.039787798408488062
sg35
I75
sg36
F0
sg37
I0
sg38
F95.222222222222229
sg39
F4.166666666666667
sg40
I377
sg41
F0.83333333333333337
sg42
F283.89999999999998
sg43
I18
sg44
I0
sg45
I3324
sg46
F15.77222222222222
sg47
VEarl Campbell
p740
ssg49
VEarl Campbell
p741
sg51
I3324
sa(dp742
g3
(dp743
g5
F11.142857142857142
sg6
I6
sg7
F0
sg8
I436
sg9
F3.7913043478260868
sg10
I21
sg11
F0.052173913043478258
sg12
I234
sg13
F0
sg14
I0
sg15
F36.333333333333336
sg16
F19.5
sg17
I115
sg18
F0.5
sg19
F124
sg20
I12
sg21
I0
sg22
I3355
sg23
F10.333333333333334
sg24
VWoody Campbell
p744
ssg26
(dp745
g28
F7.4210526315789478
sg29
I4
sg30
F0.15384615384615385
sg31
I526
sg32
F4.5344827586206895
sg33
I19
sg34
F0.034482758620689655
sg35
I141
sg36
F0.10526315789473684
sg37
I2
sg38
F40.46153846153846
sg39
F10.846153846153847
sg40
I116
sg41
F0.30769230769230771
sg42
F121.7
sg43
I13
sg44
I0
sg45
I3355
sg46
F9.361538461538462
sg47
VWoody Campbell
p746
ssg49
VWoody Campbell
p747
sg51
I3355
sa(dp748
g3
(dp749
g5
F6.2285714285714286
sg6
I5
sg7
F0
sg8
I993
sg9
F3.8638132295719845
sg10
I35
sg11
F0.019455252918287938
sg12
I218
sg13
F0
sg14
I0
sg15
F76.384615384615387
sg16
F16.76923076923077
sg17
I257
sg18
F0.38461538461538464
sg19
F186.09999999999999
sg20
I13
sg21
I45
sg22
I11635
sg23
F14.315384615384614
sg24
VJulius Jones
p750
ssg26
(dp751
g28
F6.4117647058823533
sg29
I7
sg30
F0
sg31
I819
sg32
F4.1573604060913709
sg33
I17
sg34
F0.03553299492385787
sg35
I109
sg36
F0
sg37
I0
sg38
F102.375
sg39
F13.625
sg40
I197
sg41
F0.875
sg42
F151.80000000000001
sg43
I8
sg44
I26
sg45
I11635
sg46
F18.975000000000001
sg47
VJulius Jones
p752
ssg49
VJulius Jones
p753
sg51
I11635
sa(dp754
g3
(dp755
g5
F5.4500000000000002
sg6
I5
sg7
F0
sg8
I664
sg9
F3.5698924731182795
sg10
I20
sg11
F0.026881720430107527
sg12
I109
sg13
F0
sg14
I0
sg15
F51.07692307692308
sg16
F8.384615384615385
sg17
I186
sg18
F0.38461538461538464
sg19
F127.3
sg20
I13
sg21
I28
sg22
I11643
sg23
F9.7923076923076913
sg24
VKevin Jones
p756
ssg26
(dp757
g28
F6.4285714285714288
sg29
I5
sg30
F0.066666666666666666
sg31
I1133
sg32
F4.7012448132780085
sg33
I28
sg34
F0.020746887966804978
sg35
I180
sg36
F0.035714285714285712
sg37
I1
sg38
F75.533333333333331
sg39
F12
sg40
I241
sg41
F0.33333333333333331
sg42
F195.30000000000001
sg43
I15
sg44
I41
sg45
I11643
sg46
F13.020000000000001
sg47
VKevin Jones
p758
ssg49
VKevin Jones
p759
sg51
I11643
sa(dp760
g3
(dp761
g5
F9.125
sg6
I3
sg7
F0
sg8
I460
sg9
F4.6464646464646462
sg10
I8
sg11
F0.030303030303030304
sg12
I73
sg13
F0
sg14
I0
sg15
F65.714285714285708
sg16
F10.428571428571429
sg17
I99
sg18
F0.42857142857142855
sg19
F79.299999999999997
sg20
I7
sg21
I8
sg22
I11664
sg23
F11.328571428571427
sg24
VMatt Jones
p762
ssg26
(dp763
g28
F16
sg29
I3
sg30
F0.076923076923076927
sg31
I490
sg32
F3.4027777777777777
sg33
I19
sg34
F0.020833333333333332
sg35
I304
sg36
F0.052631578947368418
sg37
I1
sg38
F37.692307692307693
sg39
F23.384615384615383
sg40
I144
sg41
F0.23076923076923078
sg42
F122.40000000000001
sg43
I13
sg44
I25
sg45
I11664
sg46
F9.4153846153846157
sg47
VMatt Jones
p764
ssg49
VMatt Jones
p765
sg51
I11664
sa(dp766
g3
(dp767
g5
F7.1904761904761907
sg6
I5
sg7
F0
sg8
I380
sg9
F3.3928571428571428
sg10
I21
sg11
F0.044642857142857144
sg12
I151
sg13
F0
sg14
I0
sg15
F23.75
sg16
F9.4375
sg17
I112
sg18
F0.3125
sg19
F104.09999999999999
sg20
I16
sg21
I24
sg22
I11713
sg23
F6.5062499999999996
sg24
VThomas Jones
p768
ssg26
(dp769
g28
F6.5
sg29
I2
sg30
F0
sg31
I373
sg32
F3.3303571428571428
sg33
I32
sg34
F0.017857142857142856
sg35
I208
sg36
F0
sg37
I0
sg38
F26.642857142857142
sg39
F14.857142857142858
sg40
I112
sg41
F0.14285714285714285
sg42
F102.09999999999999
sg43
I14
sg44
I46
sg45
I11713
sg46
F7.2928571428571427
sg47
VThomas Jones
p770
ssg49
VThomas Jones
p771
sg51
I11713
sa(dp772
g3
(dp773
g5
F10.617021276595745
sg6
I10
sg7
F0.058823529411764705
sg8
I816
sg9
F4.5082872928176796
sg10
I47
sg11
F0.055248618784530384
sg12
I499
sg13
F0.021276595744680851
sg14
I1
sg15
F48
sg16
F29.352941176470587
sg17
I181
sg18
F0.58823529411764708
sg19
F244.5
sg20
I17
sg21
I64
sg22
I11732
sg23
F14.382352941176471
sg24
VMaurice Jones-Drew
p774
ssg26
(dp775
g28
F9.4782608695652169
sg29
I13
sg30
F0.125
sg31
I941
sg32
F5.668674698795181
sg33
I46
sg34
F0.078313253012048195
sg35
I436
sg36
F0.043478260869565216
sg37
I2
sg38
F58.8125
sg39
F27.25
sg40
I166
sg41
F0.8125
sg42
F273.69999999999999
sg43
I16
sg44
I62
sg45
I11732
sg46
F17.106249999999999
sg47
VMaurice Jones-Drew
p776
ssg49
VMaurice Jones-Drew
p777
sg51
I11732
sa(dp778
g3
(dp779
g5
F11
sg6
I2
sg7
F0.0625
sg8
I379
sg9
F4.4588235294117649
sg10
I23
sg11
F0.023529411764705882
sg12
I253
sg13
F0.043478260869565216
sg14
I1
sg15
F23.6875
sg16
F15.8125
sg17
I85
sg18
F0.125
sg19
F104.2
sg20
I16
sg21
I0
sg22
I3566
sg23
F6.5125000000000002
sg24
VDexter Carter
p780
ssg26
(dp781
g28
F8.6799999999999997
sg29
I1
sg30
F0
sg31
I460
sg32
F4.0350877192982457
sg33
I25
sg34
F0.008771929824561403
sg35
I217
sg36
F0
sg37
I0
sg38
F25.555555555555557
sg39
F12.055555555555555
sg40
I114
sg41
F0.055555555555555552
sg42
F98.700000000000003
sg43
I18
sg44
I0
sg45
I3566
sg46
F5.4833333333333334
sg47
VDexter Carter
p782
ssg49
VDexter Carter
p783
sg51
I3566
sa(dp784
g3
(dp785
g5
F7.4761904761904763
sg6
I7
sg7
F0
sg8
I464
sg9
F3.625
sg10
I21
sg11
F0.0546875
sg12
I157
sg13
F0
sg14
I0
sg15
F30.933333333333334
sg16
F10.466666666666667
sg17
I128
sg18
F0.46666666666666667
sg19
F125.09999999999999
sg20
I15
sg21
I31
sg22
I3582
sg23
F8.3399999999999999
sg24
VKi-Jana Carter
p786
ssg26
(dp787
g28
F7.6818181818181817
sg29
I8
sg30
F0.0625
sg31
I264
sg32
F2.901098901098901
sg33
I22
sg34
F0.087912087912087919
sg35
I169
sg36
F0.045454545454545456
sg37
I1
sg38
F16.5
sg39
F10.5625
sg40
I91
sg41
F0.5
sg42
F119.3
sg43
I16
sg44
I35
sg45
I3582
sg46
F7.4562499999999998
sg47
VKi-Jana Carter
p788
ssg49
VKi-Jana Carter
p789
sg51
I3582
sa(dp790
g3
(dp791
g5
F6.5
sg6
I1
sg7
F0.0625
sg8
I874
sg9
F5.8266666666666671
sg10
I22
sg11
F0.0066666666666666671
sg12
I143
sg13
F0.045454545454545456
sg14
I1
sg15
F54.625
sg16
F8.9375
sg17
I150
sg18
F0.0625
sg19
F135.69999999999999
sg20
I16
sg21
I26
sg22
I11953
sg23
F8.4812499999999993
sg24
VNapoleon Kaufman 
p792
ssg26
(dp793
g28
F6.8888888888888893
sg29
I1
sg30
F0
sg31
I490
sg32
F4.5370370370370372
sg33
I9
sg34
F0.0092592592592592587
sg35
I62
sg36
F0
sg37
I0
sg38
F30.625
sg39
F3.875
sg40
I108
sg41
F0.0625
sg42
F70.200000000000003
sg43
I16
sg44
I16
sg45
I11953
sg46
F4.3875000000000002
sg47
VNapoleon Kaufman 
p794
ssg49
VNapoleon Kaufman 
p795
sg51
I11953
sa(dp796
g3
(dp797
g5
F8.4347826086956523
sg6
I5
sg7
F0.125
sg8
I312
sg9
F3.1515151515151514
sg10
I23
sg11
F0.050505050505050504
sg12
I194
sg13
F0.043478260869565216
sg14
I1
sg15
F39
sg16
F24.25
sg17
I99
sg18
F0.625
sg19
F109.59999999999999
sg20
I8
sg21
I0
sg22
I3943
sg23
F13.699999999999999
sg24
VBoobie Clark
p798
ssg26
(dp799
g28
F7.7659574468085104
sg29
I8
sg30
F0
sg31
I1028
sg32
F3.9386973180076628
sg33
I47
sg34
F0.030651340996168581
sg35
I365
sg36
F0
sg37
I0
sg38
F68.533333333333331
sg39
F24.333333333333332
sg40
I261
sg41
F0.53333333333333333
sg42
F234.30000000000001
sg43
I15
sg44
I0
sg45
I3943
sg46
F15.620000000000001
sg47
VBoobie Clark
p800
ssg49
VBoobie Clark
p801
sg51
I3943
sa(dp802
g3
(dp803
g5
F13.9
sg6
I5
sg7
F0
sg8
I488
sg9
F4.0666666666666664
sg10
I10
sg11
F0.041666666666666664
sg12
I139
sg13
F0
sg14
I0
sg15
F61
sg16
F17.375
sg17
I120
sg18
F0.625
sg19
F102.7
sg20
I8
sg21
I0
sg22
I20332
sg23
F12.8375
sg24
VO.J. Simpson
p804
ssg26
(dp805
g28
F11.433333333333334
sg29
I2
sg30
F0.23076923076923078
sg31
I697
sg32
F3.8508287292817678
sg33
I30
sg34
F0.011049723756906077
sg35
I343
sg36
F0.10000000000000001
sg37
I3
sg38
F53.615384615384613
sg39
F26.384615384615383
sg40
I181
sg41
F0.15384615384615385
sg42
F164
sg43
I13
sg44
I0
sg45
I20332
sg46
F12.615384615384615
sg47
VO.J. Simpson
p806
ssg49
VO.J. Simpson
p807
sg51
I20332
sa(dp808
g3
(dp809
g5
F12.631578947368421
sg6
I2
sg7
F0
sg8
I397
sg9
F3.6422018348623855
sg10
I19
sg11
F0.01834862385321101
sg12
I240
sg13
F0
sg14
I0
sg15
F44.111111111111114
sg16
F26.666666666666668
sg17
I109
sg18
F0.22222222222222221
sg19
F94.700000000000003
sg20
I9
sg21
I0
sg22
I23869
sg23
F10.522222222222222
sg24
VArthur Whittington
p810
ssg26
(dp811
g28
F4.6086956521739131
sg29
I7
sg30
F0
sg31
I661
sg32
F3.8430232558139537
sg33
I23
sg34
F0.040697674418604654
sg35
I106
sg36
F0
sg37
I0
sg38
F44.06666666666667
sg39
F7.0666666666666664
sg40
I172
sg41
F0.46666666666666667
sg42
F141.69999999999999
sg43
I15
sg44
I0
sg45
I23869
sg46
F9.4466666666666654
sg47
VArthur Whittington
p812
ssg49
VArthur Whittington
p813
sg51
I23869
sa(dp814
g3
(dp815
g5
F16.107142857142858
sg6
I13
sg7
F0.14285714285714285
sg8
I1437
sg9
F4.8547297297297298
sg10
I28
sg11
F0.043918918918918921
sg12
I451
sg13
F0.071428571428571425
sg14
I2
sg15
F102.64285714285714
sg16
F32.214285714285715
sg17
I296
sg18
F0.9285714285714286
sg19
F306.80000000000001
sg20
I14
sg21
I0
sg22
I20337
sg23
F21.914285714285715
sg24
VBilly Sims
p816
ssg26
(dp817
g28
F12.176470588235293
sg29
I13
sg30
F0.1875
sg31
I1303
sg32
F4.1629392971246002
sg33
I51
sg34
F0.041533546325878593
sg35
I621
sg36
F0.058823529411764705
sg37
I3
sg38
F81.4375
sg39
F38.8125
sg40
I313
sg41
F0.8125
sg42
F339.39999999999998
sg43
I16
sg44
I0
sg45
I20337
sg46
F21.212499999999999
sg47
VBilly Sims
p818
ssg49
VBilly Sims
p819
sg51
I20337
sa(dp820
g3
(dp821
g5
F6.5
sg6
I14
sg7
F0.083333333333333329
sg8
I752
sg9
F4.3218390804597702
sg10
I30
sg11
F0.080459770114942528
sg12
I195
sg13
F0.033333333333333333
sg14
I1
sg15
F62.666666666666664
sg16
F16.25
sg17
I174
sg18
F1.1666666666666667
sg19
F214.69999999999999
sg20
I12
sg21
I0
sg22
I20340
sg23
F17.891666666666666
sg24
VDavid Sims
p822
ssg26
(dp823
g28
F14.666666666666666
sg29
I5
sg30
F0.21428571428571427
sg31
I369
sg32
F3.7272727272727271
sg33
I12
sg34
F0.050505050505050504
sg35
I176
sg36
F0.25
sg37
I3
sg38
F26.357142857142858
sg39
F12.571428571428571
sg40
I99
sg41
F0.35714285714285715
sg42
F114.5
sg43
I14
sg44
I0
sg45
I20340
sg46
F8.1785714285714288
sg47
VDavid Sims
p824
ssg49
VDavid Sims
p825
sg51
I20340
sa(dp826
g3
(dp827
g5
F15.275862068965518
sg6
I9
sg7
F0.071428571428571425
sg8
I575
sg9
F3.1944444444444446
sg10
I29
sg11
F0.050000000000000003
sg12
I443
sg13
F0.034482758620689655
sg14
I1
sg15
F41.071428571428569
sg16
F31.642857142857142
sg17
I180
sg18
F0.6428571428571429
sg19
F190.80000000000001
sg20
I14
sg21
I0
sg22
I12204
sg23
F13.62857142857143
sg24
VJim Kiick 
p828
ssg26
(dp829
g28
F9.5909090909090917
sg29
I4
sg30
F0
sg31
I621
sg32
F3.7636363636363637
sg33
I44
sg34
F0.024242424242424242
sg35
I422
sg36
F0
sg37
I0
sg38
F44.357142857142854
sg39
F30.142857142857142
sg40
I165
sg41
F0.2857142857142857
sg42
F172.30000000000001
sg43
I14
sg44
I0
sg45
I12204
sg46
F12.307142857142859
sg47
VJim Kiick 
p830
ssg49
VJim Kiick 
p831
sg51
I12204
sa(dp832
g3
(dp833
g5
F9.4772727272727266
sg6
I3
sg7
F0.36363636363636365
sg8
I437
sg9
F3.33587786259542
sg10
I44
sg11
F0.022900763358778626
sg12
I417
sg13
F0.090909090909090912
sg14
I4
sg15
F39.727272727272727
sg16
F37.909090909090907
sg17
I131
sg18
F0.27272727272727271
sg19
F171.40000000000001
sg20
I11
sg21
I55
sg22
I20446
sg23
F15.581818181818182
sg24
VSteve Slaton
p834
ssg26
(dp835
g28
F7.54
sg29
I9
sg30
F0.0625
sg31
I1282
sg32
F4.7835820895522385
sg33
I50
sg34
F0.033582089552238806
sg35
I377
sg36
F0.02
sg37
I1
sg38
F80.125
sg39
F23.5625
sg40
I268
sg41
F0.5625
sg42
F275.89999999999998
sg43
I16
sg44
I59
sg45
I20446
sg46
F17.243749999999999
sg47
VSteve Slaton
p836
ssg49
VSteve Slaton
p837
sg51
I20446
sa(dp838
g3
(dp839
g5
F7.4000000000000004
sg6
I7
sg7
F0
sg8
I752
sg9
F3.8367346938775508
sg10
I15
sg11
F0.035714285714285712
sg12
I111
sg13
F0
sg14
I0
sg15
F47
sg16
F6.9375
sg17
I196
sg18
F0.4375
sg19
F143.30000000000001
sg20
I16
sg21
I0
sg22
I4131
sg23
F8.9562500000000007
sg24
VReggie Cobb
p840
ssg26
(dp841
g28
F7.666666666666667
sg29
I2
sg30
F0
sg31
I480
sg32
F3.1788079470198674
sg33
I39
sg34
F0.013245033112582781
sg35
I299
sg36
F0
sg37
I0
sg38
F30
sg39
F18.6875
sg40
I151
sg41
F0.125
sg42
F128.90000000000001
sg43
I16
sg44
I0
sg45
I4131
sg46
F8.0562500000000004
sg47
VReggie Cobb
p842
ssg49
VReggie Cobb
p843
sg51
I4131
sa(dp844
g3
(dp845
g5
F12.166666666666666
sg6
I3
sg7
F0.1875
sg8
I634
sg9
F3.218274111675127
sg10
I42
sg11
F0.015228426395939087
sg12
I511
sg13
F0.071428571428571425
sg14
I3
sg15
F39.625
sg16
F31.9375
sg17
I197
sg18
F0.1875
sg19
F192.5
sg20
I16
sg21
I0
sg22
I20557
sg23
F12.03125
sg24
VCharlie Smith
p846
ssg26
(dp847
g28
F13.814814814814815
sg29
I5
sg30
F0.14285714285714285
sg31
I579
sg32
F5.1238938053097343
sg33
I27
sg34
F0.044247787610619468
sg35
I373
sg36
F0.07407407407407407
sg37
I2
sg38
F41.357142857142854
sg39
F26.642857142857142
sg40
I113
sg41
F0.35714285714285715
sg42
F164.19999999999999
sg43
I14
sg44
I0
sg45
I20557
sg46
F11.728571428571428
sg47
VCharlie Smith
p848
ssg49
VCharlie Smith
p849
sg51
I20557
sa(dp850
g3
(dp851
g5
F5.2000000000000002
sg6
I13
sg7
F0.055555555555555552
sg8
I1748
sg9
F4.305418719211823
sg10
I50
sg11
F0.032019704433497539
sg12
I260
sg13
F0.02
sg14
I1
sg15
F97.111111111111114
sg16
F14.444444444444445
sg17
I406
sg18
F0.72222222222222221
sg19
F334.80000000000001
sg20
I18
sg21
I0
sg22
I20608
sg23
F18.600000000000001
sg24
VEmmitt Smith
p852
ssg26
(dp853
g28
F9.5
sg29
I11
sg30
F0
sg31
I937
sg32
F3.8879668049792531
sg33
I24
sg34
F0.045643153526970952
sg35
I228
sg36
F0
sg37
I0
sg38
F58.5625
sg39
F14.25
sg40
I241
sg41
F0.6875
sg42
F206.5
sg43
I16
sg44
I0
sg45
I20608
sg46
F12.90625
sg47
VEmmitt Smith
p854
ssg49
VEmmitt Smith
p855
sg51
I20608
sa(dp856
g3
(dp857
g5
F10.121951219512194
sg6
I4
sg7
F0.076923076923076927
sg8
I747
sg9
F3.4423963133640552
sg10
I41
sg11
F0.018433179723502304
sg12
I415
sg13
F0.024390243902439025
sg14
I1
sg15
F57.46153846153846
sg16
F31.923076923076923
sg17
I217
sg18
F0.30769230769230771
sg19
F187.19999999999999
sg20
I13
sg21
I57
sg22
I20685
sg23
F14.399999999999999
sg24
VKevin Smith
p858
ssg26
(dp859
g28
F7.333333333333333
sg29
I8
sg30
F0
sg31
I976
sg32
F4.1008403361344534
sg33
I39
sg34
F0.033613445378151259
sg35
I286
sg36
F0
sg37
I0
sg38
F61
sg39
F17.875
sg40
I238
sg41
F0.5
sg42
F213.19999999999999
sg43
I16
sg44
I54
sg45
I20685
sg46
F13.324999999999999
sg47
VKevin Smith
p860
ssg49
VKevin Smith
p861
sg51
I20685
sa(dp862
g3
(dp863
g5
F6.833333333333333
sg6
I1
sg7
F0.090909090909090912
sg8
I338
sg9
F4.3896103896103895
sg10
I24
sg11
F0.012987012987012988
sg12
I164
sg13
F0.041666666666666664
sg14
I1
sg15
F30.727272727272727
sg16
F14.909090909090908
sg17
I77
sg18
F0.090909090909090912
sg19
F86.200000000000003
sg20
I11
sg21
I0
sg22
I20692
sg23
F7.8363636363636369
sg24
VLarry Smith
p864
ssg26
(dp865
g28
F6.4615384615384617
sg29
I1
sg30
F0.13333333333333333
sg31
I659
sg32
F3.7231638418079096
sg33
I52
sg34
F0.0056497175141242938
sg35
I336
sg36
F0.038461538461538464
sg37
I2
sg38
F43.93333333333333
sg39
F22.399999999999999
sg40
I177
sg41
F0.066666666666666666
sg42
F169.5
sg43
I15
sg44
I0
sg45
I20692
sg46
F11.300000000000001
sg47
VLarry Smith
p866
ssg49
VLarry Smith
p867
sg51
I20692
sa(dp868
g3
(dp869
g5
F10.199999999999999
sg6
I1
sg7
F0.20000000000000001
sg8
I667
sg9
F3.9005847953216373
sg10
I20
sg11
F0.0058479532163742687
sg12
I204
sg13
F0.10000000000000001
sg14
I2
sg15
F66.700000000000003
sg16
F20.399999999999999
sg17
I171
sg18
F0.10000000000000001
sg19
F125.09999999999999
sg20
I10
sg21
I0
sg22
I4334
sg23
F12.51
sg24
VTony Collins
p870
ssg26
(dp871
g28
F8.9230769230769234
sg29
I7
sg30
F0
sg31
I873
sg32
F4.2794117647058822
sg33
I26
sg34
F0.034313725490196081
sg35
I232
sg36
F0
sg37
I0
sg38
F54.5625
sg39
F14.5
sg40
I204
sg41
F0.4375
sg42
F178.5
sg43
I16
sg44
I0
sg45
I4334
sg46
F11.15625
sg47
VTony Collins
p872
ssg49
VTony Collins
p873
sg51
I4334
sa(dp874
g3
(dp875
g5
F10.571428571428571
sg6
I2
sg7
F0.15384615384615385
sg8
I617
sg9
F4.345070422535211
sg10
I42
sg11
F0.014084507042253521
sg12
I444
sg13
F0.047619047619047616
sg14
I2
sg15
F47.46153846153846
sg16
F34.153846153846153
sg17
I142
sg18
F0.15384615384615385
sg19
F172.09999999999999
sg20
I13
sg21
I57
sg22
I20729
sg23
F13.238461538461538
sg24
VOnterrio Smith
p876
ssg26
(dp877
g28
F8.5999999999999996
sg29
I5
sg30
F0
sg31
I579
sg32
F5.4112149532710276
sg33
I15
sg34
F0.046728971962616821
sg35
I129
sg36
F0
sg37
I0
sg38
F38.600000000000001
sg39
F8.5999999999999996
sg40
I107
sg41
F0.33333333333333331
sg42
F115.8
sg43
I15
sg44
I20
sg45
I20729
sg46
F7.7199999999999998
sg47
VOnterrio Smith
p878
ssg49
VOnterrio Smith
p879
sg51
I20729
sa(dp880
g3
(dp881
g5
F11.785714285714286
sg6
I8
sg7
F0.055555555555555552
sg8
I1012
sg9
F3.7902621722846441
sg10
I14
sg11
F0.029962546816479401
sg12
I165
sg13
F0.071428571428571425
sg14
I1
sg15
F56.222222222222221
sg16
F9.1666666666666661
sg17
I267
sg18
F0.44444444444444442
sg19
F185.69999999999999
sg20
I18
sg21
I0
sg22
I20771
sg23
F10.316666666666666
sg24
VSammie Smith
p882
ssg26
(dp883
g28
F11.571428571428571
sg29
I6
sg30
F0
sg31
I659
sg32
F3.2949999999999999
sg33
I7
sg34
F0.029999999999999999
sg35
I81
sg36
F0
sg37
I0
sg38
F50.692307692307693
sg39
F6.2307692307692308
sg40
I200
sg41
F0.46153846153846156
sg42
F117
sg43
I13
sg44
I0
sg45
I20771
sg46
F9
sg47
VSammie Smith
p884
ssg49
VSammie Smith
p885
sg51
I20771
sa(dp886
g3
(dp887
g5
F13.966666666666667
sg6
I4
sg7
F0.14285714285714285
sg8
I763
sg9
F4.6809815950920246
sg10
I30
sg11
F0.024539877300613498
sg12
I419
sg13
F0.066666666666666666
sg14
I2
sg15
F54.5
sg16
F29.928571428571427
sg17
I163
sg18
F0.2857142857142857
sg19
F184.19999999999999
sg20
I14
sg21
I0
sg22
I20778
sg23
F13.157142857142857
sg24
VSherman Smith
p888
ssg26
(dp889
g28
F10.666666666666666
sg29
I4
sg30
F0.083333333333333329
sg31
I537
sg32
F4.5126050420168067
sg33
I36
sg34
F0.033613445378151259
sg35
I384
sg36
F0.027777777777777776
sg37
I1
sg38
F44.75
sg39
F32
sg40
I119
sg41
F0.33333333333333331
sg42
F158.09999999999999
sg43
I12
sg44
I0
sg45
I20778
sg46
F13.174999999999999
sg47
VSherman Smith
p890
ssg49
VSherman Smith
p891
sg51
I20778
sa(dp892
g3
(dp893
g5
F6.9473684210526319
sg6
I4
sg7
F0
sg8
I763
sg9
F4.5147928994082838
sg10
I38
sg11
F0.023668639053254437
sg12
I264
sg13
F0
sg14
I0
sg15
F58.692307692307693
sg16
F20.307692307692307
sg17
I169
sg18
F0.30769230769230771
sg19
F164.69999999999999
sg20
I13
sg21
I0
sg22
I20842
sg23
F12.669230769230769
sg24
VMatt Snell
p894
ssg26
(dp895
g28
F7.0178571428571432
sg29
I5
sg30
F0.071428571428571425
sg31
I948
sg32
F4.4299065420560746
sg33
I56
sg34
F0.02336448598130841
sg35
I393
sg36
F0.017857142857142856
sg37
I1
sg38
F67.714285714285708
sg39
F28.071428571428573
sg40
I214
sg41
F0.35714285714285715
sg42
F226.09999999999999
sg43
I14
sg44
I0
sg45
I20842
sg46
F16.149999999999999
sg47
VMatt Snell
p896
ssg49
VMatt Snell
p897
sg51
I20842
sa(dp898
g3
(dp899
g5
F10.162790697674419
sg6
I9
sg7
F0.22222222222222221
sg8
I1313
sg9
F4.5909090909090908
sg10
I43
sg11
F0.031468531468531472
sg12
I437
sg13
F0.093023255813953487
sg14
I4
sg15
F72.944444444444443
sg16
F24.277777777777779
sg17
I286
sg18
F0.5
sg19
F296
sg20
I18
sg21
I59
sg22
I12749
sg23
F16.444444444444443
sg24
VEddie Lacy
p900
ssg26
(dp901
g28
F7.1351351351351351
sg29
I11
sg30
F0
sg31
I1259
sg32
F4.1278688524590166
sg33
I37
sg34
F0.036065573770491806
sg35
I264
sg36
F0
sg37
I0
sg38
F78.6875
sg39
F16.5
sg40
I305
sg41
F0.6875
sg42
F255.30000000000001
sg43
I16
sg44
I47
sg45
I12749
sg46
F15.956250000000001
sg47
VEddie Lacy
p902
ssg49
VEddie Lacy
p903
sg51
I12749
sa(dp904
g3
(dp905
g5
F10.106382978723405
sg6
I2
sg7
F0.066666666666666666
sg8
I504
sg9
F3.3825503355704698
sg10
I47
sg11
F0.013422818791946308
sg12
I475
sg13
F0.021276595744680851
sg14
I1
sg15
F33.600000000000001
sg16
F31.666666666666668
sg17
I149
sg18
F0.13333333333333333
sg19
F162.90000000000001
sg20
I15
sg21
I0
sg22
I6228
sg23
F10.860000000000001
sg24
VJerry Eckwood
p906
ssg26
(dp907
g28
F12.181818181818182
sg29
I2
sg30
F0
sg31
I714
sg32
F3.5
sg33
I22
sg34
F0.0098039215686274508
sg35
I268
sg36
F0
sg37
I0
sg38
F39.666666666666664
sg39
F14.888888888888889
sg40
I204
sg41
F0.1111111111111111
sg42
F132.19999999999999
sg43
I18
sg44
I0
sg45
I6228
sg46
F7.3444444444444441
sg47
VJerry Eckwood
p908
ssg49
VJerry Eckwood
p909
sg51
I6228
sa(dp910
g3
(dp911
g5
F7.083333333333333
sg6
I5
sg7
F0
sg8
I717
sg9
F3.4975609756097561
sg10
I12
sg11
F0.024390243902439025
sg12
I85
sg13
F0
sg14
I0
sg15
F51.214285714285715
sg16
F6.0714285714285712
sg17
I205
sg18
F0.35714285714285715
sg19
F122.2
sg20
I14
sg21
I15
sg22
I12837
sg23
F8.7285714285714295
sg24
VFred Lane
p912
ssg26
(dp913
g28
F3.375
sg29
I7
sg30
F0
sg31
I809
sg32
F4.4450549450549453
sg33
I8
sg34
F0.038461538461538464
sg35
I27
sg36
F0
sg37
I0
sg38
F62.230769230769234
sg39
F2.0769230769230771
sg40
I182
sg41
F0.53846153846153844
sg42
F133.59999999999999
sg43
I13
sg44
I13
sg45
I12837
sg46
F10.276923076923076
sg47
VFred Lane
p914
ssg49
VFred Lane
p915
sg51
I12837
sa(dp916
g3
(dp917
g5
F9.5487804878048781
sg6
I8
sg7
F0.26315789473684209
sg8
I785
sg9
F4.1755319148936172
sg10
I82
sg11
F0.042553191489361701
sg12
I783
sg13
F0.06097560975609756
sg14
I5
sg15
F41.315789473684212
sg16
F41.210526315789473
sg17
I188
sg18
F0.42105263157894735
sg19
F316.80000000000001
sg20
I19
sg21
I8
sg22
I4714
sg23
F16.673684210526318
sg24
VRoger Craig
p918
ssg26
(dp919
g28
F8.6724137931034484
sg29
I9
sg30
F0.22222222222222221
sg31
I741
sg32
F3.9838709677419355
sg33
I58
sg34
F0.048387096774193547
sg35
I503
sg36
F0.068965517241379309
sg37
I4
sg38
F41.166666666666664
sg39
F27.944444444444443
sg40
I186
sg41
F0.5
sg42
F260.39999999999998
sg43
I18
sg44
I0
sg45
I4714
sg46
F14.466666666666665
sg47
VRoger Craig
p920
ssg49
VRoger Craig
p921
sg51
I4714
sa(dp922
g3
(dp923
g5
F7.2727272727272725
sg6
I1
sg7
F0
sg8
I621
sg9
F4.4676258992805753
sg10
I33
sg11
F0.0071942446043165471
sg12
I240
sg13
F0
sg14
I0
sg15
F44.357142857142854
sg16
F17.142857142857142
sg17
I139
sg18
F0.071428571428571425
sg19
F125.09999999999999
sg20
I14
sg21
I42
sg22
I21133
sg23
F8.9357142857142851
sg24
VJames Starks
p924
ssg26
(dp925
g28
F6
sg29
I1
sg30
F0
sg31
I416
sg32
F3.7818181818181817
sg33
I5
sg34
F0.0090909090909090905
sg35
I30
sg36
F0
sg37
I0
sg38
F59.428571428571431
sg39
F4.2857142857142856
sg40
I110
sg41
F0.14285714285714285
sg42
F55.600000000000001
sg43
I7
sg44
I8
sg45
I21133
sg46
F7.9428571428571431
sg47
VJames Starks
p926
ssg49
VJames Starks
p927
sg51
I21133
sa(dp928
g3
(dp929
g5
F15.159090909090908
sg6
I6
sg7
F0.41176470588235292
sg8
I1270
sg9
F4.4250871080139369
sg10
I44
sg11
F0.020905923344947737
sg12
I667
sg13
F0.15909090909090909
sg14
I7
sg15
F74.705882352941174
sg16
F39.235294117647058
sg17
I287
sg18
F0.35294117647058826
sg19
F315.69999999999999
sg20
I17
sg21
I0
sg22
I4768
sg23
F18.570588235294117
sg24
VJoe Cribbs
p930
ssg26
(dp931
g28
F8.0535714285714288
sg29
I11
sg30
F0.058823529411764705
sg31
I1238
sg32
F3.8209876543209877
sg33
I56
sg34
F0.033950617283950615
sg35
I451
sg36
F0.017857142857142856
sg37
I1
sg38
F72.82352941176471
sg39
F26.529411764705884
sg40
I324
sg41
F0.6470588235294118
sg42
F296.89999999999998
sg43
I17
sg44
I0
sg45
I4768
sg46
F17.464705882352941
sg47
VJoe Cribbs
p932
ssg49
VJoe Cribbs
p933
sg51
I4768
sa(dp934
g3
(dp935
g5
F9.5789473684210531
sg6
I4
sg7
F0.0625
sg8
I706
sg9
F3.8162162162162163
sg10
I19
sg11
F0.021621621621621623
sg12
I182
sg13
F0.052631578947368418
sg14
I1
sg15
F44.125
sg16
F11.375
sg17
I185
sg18
F0.25
sg19
F137.80000000000001
sg20
I16
sg21
I22
sg22
I4860
sg23
F8.6125000000000007
sg24
VIsaiah Crowell
p936
ssg26
(dp937
g28
F9.6666666666666661
sg29
I8
sg30
F0
sg31
I607
sg32
F4.1013513513513518
sg33
I9
sg34
F0.054054054054054057
sg35
I87
sg36
F0
sg37
I0
sg38
F37.9375
sg39
F5.4375
sg40
I148
sg41
F0.5
sg42
F126.40000000000001
sg43
I16
sg44
I14
sg45
I4860
sg46
F7.9000000000000004
sg47
VIsaiah Crowell
p938
ssg49
VIsaiah Crowell
p939
sg51
I4860
sa(dp940
g3
(dp941
g5
F8.7142857142857135
sg6
I2
sg7
F0.090909090909090912
sg8
I566
sg9
F4.3206106870229011
sg10
I21
sg11
F0.015267175572519083
sg12
I183
sg13
F0.047619047619047616
sg14
I1
sg15
F51.454545454545453
sg16
F16.636363636363637
sg17
I131
sg18
F0.18181818181818182
sg19
F113.90000000000001
sg20
I11
sg21
I0
sg22
I4885
sg23
F10.354545454545455
sg24
VLarry Csonka 
p942
ssg26
(dp943
g28
F10.727272727272727
sg29
I6
sg30
F0.090909090909090912
sg31
I540
sg32
F3.9130434782608696
sg33
I11
sg34
F0.043478260869565216
sg35
I118
sg36
F0.090909090909090912
sg37
I1
sg38
F49.090909090909093
sg39
F10.727272727272727
sg40
I138
sg41
F0.54545454545454541
sg42
F118.8
sg43
I11
sg44
I0
sg45
I4885
sg46
F10.799999999999999
sg47
VLarry Csonka 
p944
ssg49
VLarry Csonka 
p945
sg51
I4885
sa(dp946
g3
(dp947
g5
F6.3235294117647056
sg6
I8
sg7
F0.125
sg8
I782
sg9
F3.796116504854369
sg10
I34
sg11
F0.038834951456310676
sg12
I215
sg13
F0.058823529411764705
sg14
I2
sg15
F48.875
sg16
F13.4375
sg17
I206
sg18
F0.5
sg19
F193.69999999999999
sg20
I16
sg21
I44
sg22
I21286
sg23
F12.106249999999999
sg24
VJames Stewart
p948
ssg26
(dp949
g28
F9.0476190476190474
sg29
I2
sg30
F0.071428571428571425
sg31
I525
sg32
F3.832116788321168
sg33
I21
sg34
F0.014598540145985401
sg35
I190
sg36
F0.047619047619047616
sg37
I1
sg38
F37.5
sg39
F13.571428571428571
sg40
I137
sg41
F0.14285714285714285
sg42
F110.5
sg43
I14
sg44
I27
sg45
I21286
sg46
F7.8928571428571432
sg47
VJames Stewart
p950
ssg49
VJames Stewart
p951
sg51
I21286
sa(dp952
g3
(dp953
g5
F7.7222222222222223
sg6
I10
sg7
F0.0625
sg8
I1133
sg9
F5.126696832579186
sg10
I18
sg11
F0.045248868778280542
sg12
I139
sg13
F0.055555555555555552
sg14
I1
sg15
F70.8125
sg16
F8.6875
sg17
I221
sg18
F0.625
sg19
F211.19999999999999
sg20
I16
sg21
I26
sg22
I21291
sg23
F13.199999999999999
sg24
VJonathan Stewart
p954
ssg26
(dp955
g28
F7.8181818181818183
sg29
I11
sg30
F0
sg31
I848
sg32
F4.5347593582887704
sg33
I11
sg34
F0.058823529411764705
sg35
I86
sg36
F0
sg37
I0
sg38
F49.882352941176471
sg39
F5.0588235294117645
sg40
I187
sg41
F0.6470588235294118
sg42
F170.40000000000001
sg43
I17
sg44
I20
sg45
I21291
sg46
F10.023529411764706
sg47
VJonathan Stewart
p956
ssg49
VJonathan Stewart
p957
sg51
I21291
sa(dp958
g3
(dp959
g5
F9.7272727272727266
sg6
I9
sg7
F0.20000000000000001
sg8
I811
sg9
F4.8855421686746991
sg10
I22
sg11
F0.054216867469879519
sg12
I214
sg13
F0.090909090909090912
sg14
I2
sg15
F81.099999999999994
sg16
F21.399999999999999
sg17
I166
sg18
F0.90000000000000002
sg19
F190.5
sg20
I10
sg21
I0
sg22
I4936
sg23
F19.050000000000001
sg24
VSam Cunningham
p960
ssg26
(dp961
g28
F9.5999999999999996
sg29
I4
sg30
F0.071428571428571425
sg31
I516
sg32
F3.3290322580645162
sg33
I15
sg34
F0.025806451612903226
sg35
I144
sg36
F0.066666666666666666
sg37
I1
sg38
F36.857142857142854
sg39
F10.285714285714286
sg40
I155
sg41
F0.2857142857142857
sg42
F111
sg43
I14
sg44
I0
sg45
I4936
sg46
F7.9285714285714288
sg47
VSam Cunningham
p962
ssg49
VSam Cunningham
p963
sg51
I4936
sa(dp964
g3
(dp965
g5
F17.421052631578949
sg6
I3
sg7
F0.090909090909090912
sg8
I584
sg9
F3.6962025316455698
sg10
I19
sg11
F0.018987341772151899
sg12
I331
sg13
F0.052631578947368418
sg14
I1
sg15
F53.090909090909093
sg16
F30.09090909090909
sg17
I158
sg18
F0.27272727272727271
sg19
F134.5
sg20
I11
sg21
I0
sg22
I13425
sg23
F12.227272727272727
sg24
VFloyd Little
p966
ssg26
(dp967
g28
F1.5714285714285714
sg29
I1
sg30
F0
sg31
I381
sg32
F2.9307692307692306
sg33
I7
sg34
F0.0076923076923076927
sg35
I11
sg36
F0
sg37
I0
sg38
F29.307692307692307
sg39
F0.84615384615384615
sg40
I130
sg41
F0.076923076923076927
sg42
F52.200000000000003
sg43
I13
sg44
I0
sg45
I13425
sg46
F4.0153846153846153
sg47
VFloyd Little
p968
ssg49
VFloyd Little
p969
sg51
I13425
sa(dp970
g3
(dp971
g5
F7.8571428571428568
sg6
I3
sg7
F0
sg8
I413
sg9
F3.7889908256880735
sg10
I14
sg11
F0.027522935779816515
sg12
I110
sg13
F0
sg14
I0
sg15
F41.299999999999997
sg16
F11
sg17
I109
sg18
F0.29999999999999999
sg19
F84.299999999999997
sg20
I10
sg21
I0
sg22
I5257
sg23
F8.4299999999999997
sg24
VKenneth Davis 
p972
ssg26
(dp973
g28
F6.7619047619047619
sg29
I0
sg30
F0.0625
sg31
I519
sg32
F4.5526315789473681
sg33
I21
sg34
F0
sg35
I142
sg36
F0.047619047619047616
sg37
I1
sg38
F32.4375
sg39
F8.875
sg40
I114
sg41
F0
sg42
F93.099999999999994
sg43
I16
sg44
I0
sg45
I5257
sg46
F5.8187499999999996
sg47
VKenneth Davis 
p974
ssg49
VKenneth Davis 
p975
sg51
I5257
sa(dp976
g3
(dp977
g5
F9.1875
sg6
I6
sg7
F0.0625
sg8
I463
sg9
F3.455223880597015
sg10
I16
sg11
F0.044776119402985072
sg12
I147
sg13
F0.0625
sg14
I1
sg15
F28.9375
sg16
F9.1875
sg17
I134
sg18
F0.375
sg19
F119
sg20
I16
sg21
I25
sg22
I5258
sg23
F7.4375
sg24
VKnile Davis 
p978
ssg26
(dp979
g28
F6
sg29
I5
sg30
F0.058823529411764705
sg31
I309
sg32
F3.5113636363636362
sg33
I18
sg34
F0.056818181818181816
sg35
I108
sg36
F0.055555555555555552
sg37
I1
sg38
F18.176470588235293
sg39
F6.3529411764705879
sg40
I88
sg41
F0.29411764705882354
sg42
F95.700000000000003
sg43
I17
sg44
I22
sg45
I5258
sg46
F5.6294117647058828
sg47
VKnile Davis 
p980
ssg49
VKnile Davis 
p981
sg51
I5258
sa(dp982
g3
(dp983
g5
F7.7674418604651159
sg6
I14
sg7
F0.11764705882352941
sg8
I1629
sg9
F4.5376044568245124
sg10
I43
sg11
F0.038997214484679667
sg12
I334
sg13
F0.046511627906976744
sg14
I2
sg15
F95.82352941176471
sg16
F19.647058823529413
sg17
I359
sg18
F0.82352941176470584
sg19
F335.30000000000001
sg20
I17
sg21
I61
sg22
I5308
sg23
F19.723529411764705
sg24
VTerrell Davis 
p984
ssg26
(dp985
g28
F7.4897959183673466
sg29
I7
sg30
F0.071428571428571425
sg31
I1117
sg32
F4.7130801687763713
sg33
I49
sg34
F0.029535864978902954
sg35
I367
sg36
F0.020408163265306121
sg37
I1
sg38
F79.785714285714292
sg39
F26.214285714285715
sg40
I237
sg41
F0.5
sg42
F245.40000000000001
sg43
I14
sg44
I82
sg45
I5308
sg46
F17.528571428571428
sg47
VTerrell Davis 
p986
ssg49
VTerrell Davis 
p987
sg51
I5308
sa(dp988
g3
(dp989
g5
F8.375
sg6
I7
sg7
F0
sg8
I690
sg9
F3.8333333333333335
sg10
I8
sg11
F0.03888888888888889
sg12
I67
sg13
F0
sg14
I0
sg15
F43.125
sg16
F4.1875
sg17
I180
sg18
F0.4375
sg19
F125.7
sg20
I16
sg21
I11
sg22
I5377
sg23
F7.8562500000000002
sg24
VRon Dayne
p990
ssg26
(dp991
g28
F4.5999999999999996
sg29
I5
sg30
F0
sg31
I852
sg32
F3.3411764705882354
sg33
I5
sg34
F0.019607843137254902
sg35
I23
sg36
F0
sg37
I0
sg38
F44.842105263157897
sg39
F1.2105263157894737
sg40
I255
sg41
F0.26315789473684209
sg42
F122.5
sg43
I19
sg44
I6
sg45
I5377
sg46
F6.4473684210526319
sg47
VRon Dayne
p992
ssg49
VRon Dayne
p993
sg51
I5377
sa(dp994
g3
(dp995
g5
F6.8181818181818183
sg6
I8
sg7
F0.066666666666666666
sg8
I589
sg9
F3.5269461077844313
sg10
I11
sg11
F0.04790419161676647
sg12
I75
sg13
F0.090909090909090912
sg14
I1
sg15
F39.266666666666666
sg16
F5
sg17
I167
sg18
F0.53333333333333333
sg19
F131.40000000000001
sg20
I15
sg21
I0
sg22
I21801
sg23
F8.7599999999999998
sg24
VLars Tate
p996
ssg26
(dp997
g28
F4.5999999999999996
sg29
I7
sg30
F0.066666666666666666
sg31
I467
sg32
F3.8278688524590163
sg33
I5
sg34
F0.05737704918032787
sg35
I23
sg36
F0.20000000000000001
sg37
I1
sg38
F31.133333333333333
sg39
F1.5333333333333334
sg40
I122
sg41
F0.46666666666666667
sg42
F102
sg43
I15
sg44
I0
sg45
I21801
sg46
F6.7999999999999998
sg47
VLars Tate
p998
ssg49
VLars Tate
p999
sg51
I21801
sa(dp1000
g3
(dp1001
g5
F4.8181818181818183
sg6
I0
sg7
F0
sg8
I380
sg9
F4
sg10
I11
sg11
F0
sg12
I53
sg13
F0
sg14
I0
sg15
F47.5
sg16
F6.625
sg17
I95
sg18
F0
sg19
F54.299999999999997
sg20
I8
sg21
I0
sg22
I5439
sg23
F6.7874999999999996
sg24
VJoe Delaney
p1002
ssg26
(dp1003
g28
F11.181818181818182
sg29
I3
sg30
F0
sg31
I1121
sg32
F4.7905982905982905
sg33
I22
sg34
F0.01282051282051282
sg35
I246
sg36
F0
sg37
I0
sg38
F74.733333333333334
sg39
F16.399999999999999
sg40
I234
sg41
F0.20000000000000001
sg42
F176.69999999999999
sg43
I15
sg44
I0
sg45
I5439
sg46
F11.779999999999999
sg47
VJoe Delaney
p1004
ssg49
VJoe Delaney
p1005
sg51
I5439
sa(dp1006
g3
(dp1007
g5
F9.2413793103448274
sg6
I2
sg7
F0.13333333333333333
sg8
I682
sg9
F3.2946859903381642
sg10
I29
sg11
F0.0096618357487922701
sg12
I268
sg13
F0.068965517241379309
sg14
I2
sg15
F45.466666666666669
sg16
F17.866666666666667
sg17
I207
sg18
F0.13333333333333333
sg19
F148
sg20
I15
sg21
I0
sg22
I21824
sg23
F9.8666666666666671
sg24
VAltie Taylor
p1008
ssg26
(dp1009
g28
F6.615384615384615
sg29
I0
sg30
F0
sg31
I348
sg32
F2.9491525423728815
sg33
I13
sg34
F0
sg35
I86
sg36
F0
sg37
I0
sg38
F34.799999999999997
sg39
F8.5999999999999996
sg40
I118
sg41
F0
sg42
F56.399999999999999
sg43
I10
sg44
I0
sg45
I21824
sg46
F5.6399999999999997
sg47
VAltie Taylor
p1010
ssg49
VAltie Taylor
p1011
sg51
I21824
sa(dp1012
g3
(dp1013
g5
F10.615384615384615
sg6
I7
sg7
F0.083333333333333329
sg8
I977
sg9
F4.9846938775510203
sg10
I13
sg11
F0.035714285714285712
sg12
I138
sg13
F0.076923076923076927
sg14
I1
sg15
F81.416666666666671
sg16
F11.5
sg17
I196
sg18
F0.58333333333333337
sg19
F172.5
sg20
I12
sg21
I19
sg22
I21850
sg23
F14.375
sg24
VFred Taylor
p1014
ssg26
(dp1015
g28
F9.5681818181818183
sg29
I15
sg30
F0.17647058823529413
sg31
I1471
sg32
F4.6403785488958986
sg33
I44
sg34
F0.047318611987381701
sg35
I421
sg36
F0.068181818181818177
sg37
I3
sg38
F86.529411764705884
sg39
F24.764705882352942
sg40
I317
sg41
F0.88235294117647056
sg42
F341.19999999999999
sg43
I17
sg44
I53
sg45
I21850
sg46
F20.070588235294117
sg47
VFred Taylor
p1016
ssg49
VFred Taylor
p1017
sg51
I21850
sa(dp1018
g3
(dp1019
g5
F6.3829787234042552
sg6
I8
sg7
F0.066666666666666666
sg8
I1036
sg9
F4.1440000000000001
sg10
I47
sg11
F0.032000000000000001
sg12
I300
sg13
F0.021276595744680851
sg14
I1
sg15
F69.066666666666663
sg16
F20
sg17
I250
sg18
F0.53333333333333333
sg19
F234.59999999999999
sg20
I15
sg21
I67
sg22
I13751
sg23
F15.639999999999999
sg24
VMarshawn Lynch 
p1020
ssg26
(dp1021
g28
F10.222222222222221
sg29
I7
sg30
F0
sg31
I1115
sg32
F3.9821428571428572
sg33
I18
sg34
F0.025000000000000001
sg35
I184
sg36
F0
sg37
I0
sg38
F85.769230769230774
sg39
F14.153846153846153
sg40
I280
sg41
F0.53846153846153844
sg42
F189.90000000000001
sg43
I13
sg44
I26
sg45
I13751
sg46
F14.607692307692307
sg47
VMarshawn Lynch 
p1022
ssg49
VMarshawn Lynch 
p1023
sg51
I13751
sa(dp1024
g3
(dp1025
g5
F10.371428571428572
sg6
I11
sg7
F0
sg8
I822
sg9
F3.7363636363636363
sg10
I35
sg11
F0.050000000000000003
sg12
I363
sg13
F0
sg14
I0
sg15
F58.714285714285715
sg16
F25.928571428571427
sg17
I220
sg18
F0.7857142857142857
sg19
F219.5
sg20
I14
sg21
I0
sg22
I13796
sg23
F15.678571428571429
sg24
VKevin Mack
p1026
ssg26
(dp1027
g28
F10.241379310344827
sg29
I7
sg30
F0.17647058823529413
sg31
I1160
sg32
F4.9361702127659575
sg33
I29
sg34
F0.029787234042553193
sg35
I297
sg36
F0.10344827586206896
sg37
I3
sg38
F68.235294117647058
sg39
F17.470588235294116
sg40
I235
sg41
F0.41176470588235292
sg42
F234.69999999999999
sg43
I17
sg44
I0
sg45
I13796
sg46
F13.805882352941175
sg47
VKevin Mack
p1028
ssg49
VKevin Mack
p1029
sg51
I13796
sa(dp1030
g3
(dp1031
g5
F6.6190476190476186
sg6
I15
sg7
F0
sg8
I2212
sg9
F5.5024875621890548
sg10
I21
sg11
F0.037313432835820892
sg12
I139
sg13
F0
sg14
I0
sg15
F130.11764705882354
sg16
F8.1764705882352935
sg17
I402
sg18
F0.88235294117647056
sg19
F346.10000000000002
sg20
I17
sg21
I0
sg22
I5605
sg23
F20.358823529411765
sg24
VEric Dickerson
p1032
ssg26
(dp1033
g28
F7.1864406779661021
sg29
I18
sg30
F0.1111111111111111
sg31
I1923
sg32
F4.5460992907801421
sg33
I59
sg34
F0.042553191489361701
sg35
I424
sg36
F0.033898305084745763
sg37
I2
sg38
F106.83333333333333
sg39
F23.555555555555557
sg40
I423
sg41
F1
sg42
F413.69999999999999
sg43
I18
sg44
I0
sg45
I5605
sg46
F22.983333333333334
sg47
VEric Dickerson
p1034
ssg49
VEric Dickerson
p1035
sg51
I5605
sa(dp1036
g3
(dp1037
g5
F11.324324324324325
sg6
I7
sg7
F0.20000000000000001
sg8
I779
sg9
F4.75
sg10
I37
sg11
F0.042682926829268296
sg12
I419
sg13
F0.081081081081081086
sg14
I3
sg15
F51.93333333333333
sg16
F27.933333333333334
sg17
I164
sg18
F0.46666666666666667
sg19
F216.80000000000001
sg20
I15
sg21
I0
sg22
I5609
sg23
F14.453333333333335
sg24
VCurtis Dickey
p1038
ssg26
(dp1039
g28
F8.1600000000000001
sg29
I11
sg30
F0.13333333333333333
sg31
I800
sg32
F4.5454545454545459
sg33
I25
sg34
F0.0625
sg35
I204
sg36
F0.080000000000000002
sg37
I2
sg38
F53.333333333333336
sg39
F13.6
sg40
I176
sg41
F0.73333333333333328
sg42
F203.40000000000001
sg43
I15
sg44
I0
sg45
I5609
sg46
F13.56
sg47
VCurtis Dickey
p1040
ssg49
VCurtis Dickey
p1041
sg51
I5609
sa(dp1042
g3
(dp1043
g5
F6.791666666666667
sg6
I6
sg7
F0
sg8
I721
sg9
F3.3691588785046731
sg10
I24
sg11
F0.028037383177570093
sg12
I163
sg13
F0
sg14
I0
sg15
F60.083333333333336
sg16
F13.583333333333334
sg17
I214
sg18
F0.5
sg19
F148.40000000000001
sg20
I12
sg21
I41
sg22
I22001
sg23
F12.366666666666667
sg24
VAnthony Thomas
p1044
ssg26
(dp1045
g28
F8.2173913043478262
sg29
I7
sg30
F0
sg31
I1219
sg32
F4.1604095563139936
sg33
I23
sg34
F0.023890784982935155
sg35
I189
sg36
F0
sg37
I0
sg38
F81.266666666666666
sg39
F12.6
sg40
I293
sg41
F0.46666666666666667
sg42
F205.80000000000001
sg43
I15
sg44
I31
sg45
I22001
sg46
F13.720000000000001
sg47
VAnthony Thomas
p1046
ssg49
VAnthony Thomas
p1047
sg51
I22001
sa(dp1048
g3
(dp1049
g5
F6.5
sg6
I3
sg7
F0.0625
sg8
I728
sg9
F3.8518518518518516
sg10
I30
sg11
F0.015873015873015872
sg12
I195
sg13
F0.033333333333333333
sg14
I1
sg15
F45.5
sg16
F12.1875
sg17
I189
sg18
F0.1875
sg19
F146.30000000000001
sg20
I16
sg21
I0
sg22
I22004
sg23
F9.1437500000000007
sg24
VBlair Thomas
p1050
ssg26
(dp1051
g28
F10.199999999999999
sg29
I1
sg30
F0.066666666666666666
sg31
I620
sg32
F5.0406504065040654
sg33
I20
sg34
F0.008130081300813009
sg35
I204
sg36
F0.050000000000000003
sg37
I1
sg38
F41.333333333333336
sg39
F13.6
sg40
I123
sg41
F0.066666666666666666
sg42
F114.40000000000001
sg43
I15
sg44
I0
sg45
I22004
sg46
F7.6266666666666669
sg47
VBlair Thomas
p1052
ssg49
VBlair Thomas
p1053
sg51
I22004
sa(dp1054
g3
(dp1055
g5
F10.4
sg6
I4
sg7
F0
sg8
I325
sg9
F3.5714285714285716
sg10
I15
sg11
F0.043956043956043959
sg12
I156
sg13
F0
sg14
I0
sg15
F27.083333333333332
sg16
F13
sg17
I91
sg18
F0.33333333333333331
sg19
F87.099999999999994
sg20
I12
sg21
I22
sg22
I22024
sg23
F7.2583333333333329
sg24
VDaniel Thomas
p1056
ssg26
(dp1057
g28
F6
sg29
I0
sg30
F0.076923076923076927
sg31
I581
sg32
F3.521212121212121
sg33
I12
sg34
F0
sg35
I72
sg36
F0.083333333333333329
sg37
I1
sg38
F44.692307692307693
sg39
F5.5384615384615383
sg40
I165
sg41
F0
sg42
F83.299999999999997
sg43
I13
sg44
I16
sg45
I22024
sg46
F6.4076923076923071
sg47
VDaniel Thomas
p1058
ssg49
VDaniel Thomas
p1059
sg51
I22024
sa(dp1060
g3
(dp1061
g5
F10
sg6
I14
sg7
F0.14285714285714285
sg8
I998
sg9
F4.339130434782609
sg10
I18
sg11
F0.060869565217391307
sg12
I180
sg13
F0.1111111111111111
sg14
I2
sg15
F71.285714285714292
sg16
F12.857142857142858
sg17
I230
sg18
F1
sg19
F231.80000000000001
sg20
I14
sg21
I0
sg22
I22037
sg23
F16.557142857142857
sg24
VDuane Thomas
p1062
ssg26
(dp1063
g28
F7.375
sg29
I6
sg30
F0.058823529411764705
sg31
I1116
sg32
F4.9380530973451329
sg33
I16
sg34
F0.026548672566371681
sg35
I118
sg36
F0.0625
sg37
I1
sg38
F65.647058823529406
sg39
F6.9411764705882355
sg40
I226
sg41
F0.35294117647058826
sg42
F181.40000000000001
sg43
I17
sg44
I0
sg45
I22037
sg46
F10.670588235294119
sg47
VDuane Thomas
p1064
ssg49
VDuane Thomas
p1065
sg51
I22037
sa(dp1066
g3
(dp1067
g5
F6.3571428571428568
sg6
I4
sg7
F0.066666666666666666
sg8
I1130
sg9
F4.3129770992366412
sg10
I28
sg11
F0.015267175572519083
sg12
I178
sg13
F0.035714285714285712
sg14
I1
sg15
F75.333333333333329
sg16
F11.866666666666667
sg17
I262
sg18
F0.26666666666666666
sg19
F188.80000000000001
sg20
I15
sg21
I44
sg22
I5655
sg23
F12.586666666666668
sg24
VCorey Dillon
p1068
ssg26
(dp1069
g28
F9.5925925925925934
sg29
I10
sg30
F0
sg31
I1129
sg32
F4.8454935622317601
sg33
I27
sg34
F0.042918454935622317
sg35
I259
sg36
F0
sg37
I0
sg38
F70.5625
sg39
F16.1875
sg40
I233
sg41
F0.625
sg42
F225.80000000000001
sg43
I16
sg44
I33
sg45
I5655
sg46
F14.112500000000001
sg47
VCorey Dillon
p1070
ssg49
VCorey Dillon
p1071
sg51
I5655
sa(dp1072
g3
(dp1073
g5
F10.266666666666667
sg6
I5
sg7
F0.2857142857142857
sg8
I1146
sg9
F4.3245283018867928
sg10
I30
sg11
F0.018867924528301886
sg12
I308
sg13
F0.13333333333333333
sg14
I4
sg15
F81.857142857142861
sg16
F22
sg17
I265
sg18
F0.35714285714285715
sg19
F229.40000000000001
sg20
I14
sg21
I0
sg22
I22096
sg23
F16.385714285714286
sg24
VMike Thomas
p1074
ssg26
(dp1075
g28
F12.074999999999999
sg29
I4
sg30
F0.21428571428571427
sg31
I919
sg32
F3.9106382978723406
sg33
I40
sg34
F0.017021276595744681
sg35
I483
sg36
F0.074999999999999997
sg37
I3
sg38
F65.642857142857139
sg39
F34.5
sg40
I235
sg41
F0.2857142857142857
sg42
F222.19999999999999
sg43
I14
sg44
I0
sg45
I22096
sg46
F15.87142857142857
sg47
VMike Thomas
p1076
ssg49
VMike Thomas
p1077
sg51
I22096
sa(dp1078
g3
(dp1079
g5
F11.219178082191782
sg6
I6
sg7
F0.47058823529411764
sg8
I1271
sg9
F4.1266233766233764
sg10
I73
sg11
F0.01948051948051948
sg12
I819
sg13
F0.1095890410958904
sg14
I8
sg15
F74.764705882352942
sg16
F48.176470588235297
sg17
I308
sg18
F0.35294117647058826
sg19
F366
sg20
I17
sg21
I0
sg22
I22128
sg23
F21.529411764705884
sg24
VThurman Thomas
p1080
ssg26
(dp1081
g28
F11.555555555555555
sg29
I3
sg30
F0
sg31
I962
sg32
F4.4128440366972477
sg33
I18
sg34
F0.013761467889908258
sg35
I208
sg36
F0
sg37
I0
sg38
F56.588235294117645
sg39
F12.235294117647058
sg40
I218
sg41
F0.17647058823529413
sg42
F153
sg43
I17
sg44
I0
sg45
I22128
sg46
F9
sg47
VThurman Thomas
p1082
ssg49
VThurman Thomas
p1083
sg51
I22128
sa(dp1084
g3
(dp1085
g5
F7.4285714285714288
sg6
I1
sg7
F0
sg8
I376
sg9
F2.9841269841269842
sg10
I7
sg11
F0.0079365079365079361
sg12
I52
sg13
F0
sg14
I0
sg15
F23.5
sg16
F3.25
sg17
I126
sg18
F0.0625
sg19
F55.799999999999997
sg20
I16
sg21
I0
sg22
I22147
sg23
F3.4874999999999998
sg24
VAnthony Thompson
p1086
ssg26
(dp1087
g28
F5.5
sg29
I4
sg30
F0
sg31
I390
sg32
F3.6792452830188678
sg33
I2
sg34
F0.037735849056603772
sg35
I11
sg36
F0
sg37
I0
sg38
F30
sg39
F0.84615384615384615
sg40
I106
sg41
F0.30769230769230771
sg42
F66.099999999999994
sg43
I13
sg44
I0
sg45
I22147
sg46
F5.0846153846153843
sg47
VAnthony Thompson
p1088
ssg49
VAnthony Thompson
p1089
sg51
I22147
sa(dp1090
g3
(dp1091
g5
F9.9111111111111114
sg6
I8
sg7
F0.10526315789473684
sg8
I1587
sg9
F4.7091988130563802
sg10
I45
sg11
F0.023738872403560832
sg12
I446
sg13
F0.044444444444444446
sg14
I2
sg15
F83.526315789473685
sg16
F23.473684210526315
sg17
I337
sg18
F0.42105263157894735
sg19
F308.30000000000001
sg20
I19
sg21
I0
sg22
I5830
sg23
F16.226315789473684
sg24
VTony Dorsett
p1092
ssg26
(dp1093
g28
F9.7272727272727266
sg29
I16
sg30
F0.058823529411764705
sg31
I1229
sg32
F4.7451737451737452
sg33
I33
sg34
F0.061776061776061778
sg35
I321
sg36
F0.030303030303030304
sg37
I1
sg38
F72.294117647058826
sg39
F18.882352941176471
sg40
I259
sg41
F0.94117647058823528
sg42
F290
sg43
I17
sg44
I0
sg45
I5830
sg46
F17.058823529411764
sg47
VTony Dorsett
p1094
ssg49
VTony Dorsett
p1095
sg51
I5830
sa(dp1096
g3
(dp1097
g5
F19.666666666666668
sg6
I9
sg7
F0
sg8
I1115
sg9
F4.5325203252032518
sg10
I9
sg11
F0.036585365853658534
sg12
I177
sg13
F0
sg14
I0
sg15
F69.6875
sg16
F11.0625
sg17
I246
sg18
F0.5625
sg19
F192.19999999999999
sg20
I16
sg21
I14
sg22
I14071
sg23
F12.012499999999999
sg24
VLaurence Maroney
p1098
ssg26
(dp1099
g28
F8.695652173913043
sg29
I6
sg30
F0.058823529411764705
sg31
I832
sg32
F4.0388349514563107
sg33
I23
sg34
F0.029126213592233011
sg35
I200
sg36
F0.043478260869565216
sg37
I1
sg38
F48.941176470588232
sg39
F11.764705882352942
sg40
I206
sg41
F0.35294117647058826
sg42
F168.19999999999999
sg43
I17
sg44
I32
sg45
I14071
sg46
F9.8941176470588221
sg47
VLaurence Maroney
p1100
ssg49
VLaurence Maroney
p1101
sg51
I14071
sa(dp1102
g3
(dp1103
g5
F7.1851851851851851
sg6
I19
sg7
F0.15789473684210525
sg8
I1419
sg9
F3.8876712328767122
sg10
I54
sg11
F0.052054794520547946
sg12
I388
sg13
F0.055555555555555552
sg14
I3
sg15
F74.684210526315795
sg16
F20.421052631578949
sg17
I365
sg18
F1
sg19
F366.69999999999999
sg20
I19
sg21
I65
sg22
I14142
sg23
F19.300000000000001
sg24
VCurtis Martin 
p1104
ssg26
(dp1105
g28
F8.6999999999999993
sg29
I14
sg30
F0.0625
sg31
I1487
sg32
F4.0407608695652177
sg33
I30
sg34
F0.038043478260869568
sg35
I261
sg36
F0.033333333333333333
sg37
I1
sg38
F92.9375
sg39
F16.3125
sg40
I368
sg41
F0.875
sg42
F294.80000000000001
sg43
I16
sg44
I50
sg45
I14142
sg46
F18.425000000000001
sg47
VCurtis Martin 
p1106
ssg49
VCurtis Martin 
p1107
sg51
I14142
sa(dp1108
g3
(dp1109
g5
F5.5
sg6
I1
sg7
F0
sg8
I456
sg9
F3.590551181102362
sg10
I12
sg11
F0.007874015748031496
sg12
I66
sg13
F0
sg14
I0
sg15
F76
sg16
F11
sg17
I127
sg18
F0.16666666666666666
sg19
F70.200000000000003
sg20
I6
sg21
I24
sg22
I14151
sg23
F11.700000000000001
sg24
VDoug Martin 
p1110
ssg26
(dp1111
g28
F9.6326530612244898
sg29
I11
sg30
F0.0625
sg31
I1454
sg32
F4.5579937304075235
sg33
I49
sg34
F0.034482758620689655
sg35
I472
sg36
F0.020408163265306121
sg37
I1
sg38
F90.875
sg39
F29.5
sg40
I319
sg41
F0.6875
sg42
F313.60000000000002
sg43
I16
sg44
I70
sg45
I14151
sg46
F19.600000000000001
sg47
VDoug Martin 
p1112
ssg49
VDoug Martin 
p1113
sg51
I14151
sa(dp1114
g3
(dp1115
g5
F8.545454545454545
sg6
I11
sg7
F0
sg8
I779
sg9
F3.9543147208121829
sg10
I11
sg11
F0.055837563451776651
sg12
I94
sg13
F0
sg14
I0
sg15
F48.6875
sg16
F5.875
sg17
I197
sg18
F0.6875
sg19
F164.30000000000001
sg20
I16
sg21
I13
sg22
I5998
sg23
F10.268750000000001
sg24
VT.J. Duckett
p1116
ssg26
(dp1117
g28
F7.9000000000000004
sg29
I5
sg30
F0
sg31
I557
sg32
F3.738255033557047
sg33
I10
sg34
F0.033557046979865772
sg35
I79
sg36
F0
sg37
I0
sg38
F39.785714285714285
sg39
F5.6428571428571432
sg40
I149
sg41
F0.35714285714285715
sg42
F103.59999999999999
sg43
I14
sg44
I12
sg45
I5998
sg46
F7.3999999999999995
sg47
VT.J. Duckett
p1118
ssg49
VT.J. Duckett
p1119
sg51
I5998
sa(dp1120
g3
(dp1121
g5
F6.1898734177215191
sg6
I14
sg7
F0.0625
sg8
I1683
sg9
F4.524193548387097
sg10
I79
sg11
F0.037634408602150539
sg12
I489
sg13
F0.012658227848101266
sg14
I1
sg15
F105.1875
sg16
F30.5625
sg17
I372
sg18
F0.875
sg19
F386.19999999999999
sg20
I16
sg21
I101
sg22
I22399
sg23
F24.137499999999999
sg24
VLaDainian Tomlinson
p1122
ssg26
(dp1123
g28
F6.2203389830508478
sg29
I10
sg30
F0
sg31
I1236
sg32
F3.6460176991150441
sg33
I59
sg34
F0.029498525073746312
sg35
I367
sg36
F0
sg37
I0
sg38
F77.25
sg39
F22.9375
sg40
I339
sg41
F0.625
sg42
F279.30000000000001
sg43
I16
sg44
I74
sg45
I22399
sg46
F17.456250000000001
sg47
VLaDainian Tomlinson
p1124
ssg49
VLaDainian Tomlinson
p1125
sg51
I22399
sa(dp1126
g3
(dp1127
g5
F9.0999999999999996
sg6
I6
sg7
F0
sg8
I1091
sg9
F4.9144144144144146
sg10
I50
sg11
F0.027027027027027029
sg12
I455
sg13
F0
sg14
I0
sg15
F77.928571428571431
sg16
F32.5
sg17
I222
sg18
F0.42857142857142855
sg19
F240.59999999999999
sg20
I14
sg21
I59
sg22
I14267
sg23
F17.185714285714287
sg24
VRyan Mathews
p1128
ssg26
(dp1129
g28
F6.5909090909090908
sg29
I7
sg30
F0
sg31
I678
sg32
F4.2911392405063289
sg33
I22
sg34
F0.044303797468354431
sg35
I145
sg36
F0
sg37
I0
sg38
F56.5
sg39
F12.083333333333334
sg40
I158
sg41
F0.58333333333333337
sg42
F146.30000000000001
sg43
I12
sg44
I26
sg45
I14267
sg46
F12.191666666666668
sg47
VRyan Mathews
p1130
ssg49
VRyan Mathews
p1131
sg51
I14267
sa(dp1132
g3
(dp1133
g5
F7.8181818181818183
sg6
I2
sg7
F0
sg8
I1026
sg9
F4.1877551020408159
sg10
I44
sg11
F0.0081632653061224497
sg12
I344
sg13
F0
sg14
I0
sg15
F64.125
sg16
F21.5
sg17
I245
sg18
F0.125
sg19
F193
sg20
I16
sg21
I57
sg22
I6102
sg23
F12.0625
sg24
VWarrick Dunn
p1134
ssg26
(dp1135
g28
F11.272727272727273
sg29
I4
sg30
F0.16666666666666666
sg31
I1114
sg32
F4.2846153846153845
sg33
I44
sg34
F0.015384615384615385
sg35
I496
sg36
F0.068181818181818177
sg37
I3
sg38
F61.888888888888886
sg39
F27.555555555555557
sg40
I260
sg41
F0.22222222222222221
sg42
F247
sg43
I18
sg44
I67
sg45
I6102
sg46
F13.722222222222221
sg47
VWarrick Dunn
p1136
ssg49
VWarrick Dunn
p1137
sg51
I6102
sa(dp1138
g3
(dp1139
g5
F5.7073170731707314
sg6
I3
sg7
F0
sg8
I371
sg9
F2.6690647482014387
sg10
I41
sg11
F0.021582733812949641
sg12
I234
sg13
F0
sg14
I0
sg15
F28.53846153846154
sg16
F18
sg17
I139
sg18
F0.23076923076923078
sg19
F119.5
sg20
I13
sg21
I0
sg22
I14352
sg23
F9.1923076923076916
sg24
VAlvin Maxson
p1140
ssg26
(dp1141
g28
F7
sg29
I2
sg30
F0.071428571428571425
sg31
I714
sg32
F4.3272727272727272
sg33
I42
sg34
F0.012121212121212121
sg35
I294
sg36
F0.023809523809523808
sg37
I1
sg38
F51
sg39
F21
sg40
I165
sg41
F0.14285714285714285
sg42
F160.80000000000001
sg43
I14
sg44
I0
sg45
I14352
sg46
F11.485714285714286
sg47
VAlvin Maxson
p1142
ssg49
VAlvin Maxson
p1143
sg51
I14352
sa(dp1144
g3
(dp1145
g5
F4.5333333333333332
sg6
I5
sg7
F0
sg8
I928
sg9
F3.7723577235772359
sg10
I15
sg11
F0.02032520325203252
sg12
I68
sg13
F0
sg14
I0
sg15
F71.384615384615387
sg16
F5.2307692307692308
sg17
I246
sg18
F0.38461538461538464
sg19
F144.59999999999999
sg20
I13
sg21
I0
sg22
I14385
sg23
F11.123076923076923
sg24
VRueben Mayes
p1146
ssg26
(dp1147
g28
F5.6470588235294121
sg29
I8
sg30
F0
sg31
I1353
sg32
F4.7307692307692308
sg33
I17
sg34
F0.027972027972027972
sg35
I96
sg36
F0
sg37
I0
sg38
F84.5625
sg39
F6
sg40
I286
sg41
F0.5
sg42
F209.90000000000001
sg43
I16
sg44
I0
sg45
I14385
sg46
F13.11875
sg47
VRueben Mayes
p1148
ssg49
VRueben Mayes
p1149
sg51
I14385
sa(dp1150
g3
(dp1151
g5
F7.666666666666667
sg6
I0
sg7
F0
sg8
I304
sg9
F3.3406593406593408
sg10
I9
sg11
F0
sg12
I69
sg13
F0
sg14
I0
sg15
F16
sg16
F3.6315789473684212
sg17
I91
sg18
F0
sg19
F46.299999999999997
sg20
I19
sg21
I14
sg22
I22612
sg23
F2.4368421052631577
sg24
VRobert Turbin
p1152
ssg26
(dp1153
g28
F10.181818181818182
sg29
I0
sg30
F0
sg31
I394
sg32
F4.2826086956521738
sg33
I22
sg34
F0
sg35
I224
sg36
F0
sg37
I0
sg38
F21.888888888888889
sg39
F12.444444444444445
sg40
I92
sg41
F0
sg42
F83.799999999999997
sg43
I18
sg44
I27
sg45
I22612
sg46
F4.655555555555555
sg47
VRobert Turbin
p1154
ssg49
VRobert Turbin
p1155
sg51
I22612
sa(dp1156
g3
(dp1157
g5
F8.5869565217391308
sg6
I3
sg7
F0.16666666666666666
sg8
I660
sg9
F3.283582089552239
sg10
I46
sg11
F0.014925373134328358
sg12
I395
sg13
F0.043478260869565216
sg14
I2
sg15
F55
sg16
F32.916666666666664
sg17
I201
sg18
F0.25
sg19
F181.5
sg20
I12
sg21
I64
sg22
I6367
sg23
F15.125
sg24
VAndre Ellington
p1158
ssg26
(dp1159
g28
F9.5128205128205128
sg29
I3
sg30
F0.066666666666666666
sg31
I652
sg32
F5.5254237288135597
sg33
I39
sg34
F0.025423728813559324
sg35
I371
sg36
F0.02564102564102564
sg37
I1
sg38
F43.466666666666669
sg39
F24.733333333333334
sg40
I118
sg41
F0.20000000000000001
sg42
F165.30000000000001
sg43
I15
sg44
I57
sg45
I6367
sg46
F11.020000000000001
sg47
VAndre Ellington
p1160
ssg49
VAndre Ellington
p1161
sg51
I6367
sa(dp1162
g3
(dp1163
g5
F11.052631578947368
sg6
I7
sg7
F0.25
sg8
I783
sg9
F4.0994764397905756
sg10
I19
sg11
F0.036649214659685861
sg12
I210
sg13
F0.10526315789473684
sg14
I2
sg15
F97.875
sg16
F26.25
sg17
I191
sg18
F0.875
sg19
F172.30000000000001
sg20
I8
sg21
I26
sg22
I6375
sg23
F21.537500000000001
sg24
VEzekiel Elliott
p1164
ssg26
(dp1165
g28
F10.939393939393939
sg29
I15
sg30
F0.0625
sg31
I1756
sg32
F5.1046511627906979
sg33
I33
sg34
F0.043604651162790699
sg35
I361
sg36
F0.030303030303030304
sg37
I1
sg38
F109.75
sg39
F22.5625
sg40
I344
sg41
F0.9375
sg42
F340.69999999999999
sg43
I16
sg44
I40
sg45
I6375
sg46
F21.293749999999999
sg47
VEzekiel Elliott
p1166
ssg49
VEzekiel Elliott
p1167
sg51
I6375
sa(dp1168
g3
(dp1169
g5
F7.6769230769230772
sg6
I4
sg7
F0.1875
sg8
I860
sg9
F4.3877551020408161
sg10
I65
sg11
F0.020408163265306121
sg12
I499
sg13
F0.046153846153846156
sg14
I3
sg15
F53.75
sg16
F31.1875
sg17
I196
sg18
F0.25
sg19
F242.90000000000001
sg20
I16
sg21
I0
sg22
I6398
sg23
F15.18125
sg24
VGerry Ellis
p1170
ssg26
(dp1171
g28
F10.333333333333334
sg29
I5
sg30
F0.20000000000000001
sg31
I545
sg32
F4.3253968253968251
sg33
I48
sg34
F0.03968253968253968
sg35
I496
sg36
F0.0625
sg37
I3
sg38
F36.333333333333336
sg39
F33.06666666666667
sg40
I126
sg41
F0.33333333333333331
sg42
F200.09999999999999
sg43
I15
sg44
I0
sg45
I6398
sg46
F13.34
sg47
VGerry Ellis
p1172
ssg49
VGerry Ellis
p1173
sg51
I6398
sa(dp1174
g3
(dp1175
g5
F7.6585365853658534
sg6
I7
sg7
F0.125
sg8
I1126
sg9
F5.1415525114155249
sg10
I82
sg11
F0.031963470319634701
sg12
I628
sg13
F0.024390243902439025
sg14
I2
sg15
F70.375
sg16
F39.25
sg17
I219
sg18
F0.4375
sg19
F311.39999999999998
sg20
I16
sg21
I98
sg22
I14591
sg23
F19.462499999999999
sg24
VLeSean McCoy
p1176
ssg26
(dp1177
g28
F7.7317073170731705
sg29
I4
sg30
F0
sg31
I661
sg32
F4.1312499999999996
sg33
I41
sg34
F0.025000000000000001
sg35
I317
sg36
F0
sg37
I0
sg38
F38.882352941176471
sg39
F18.647058823529413
sg40
I160
sg41
F0.23529411764705882
sg42
F162.80000000000001
sg43
I17
sg44
I57
sg45
I14591
sg46
F9.5764705882352956
sg47
VLeSean McCoy
p1178
ssg49
VLeSean McCoy
p1179
sg51
I14591
sa(dp1180
g3
(dp1181
g5
F7.9473684210526319
sg6
I3
sg7
F0.0625
sg8
I644
sg9
F3.7660818713450293
sg10
I19
sg11
F0.017543859649122806
sg12
I151
sg13
F0.052631578947368418
sg14
I1
sg15
F40.25
sg16
F9.4375
sg17
I171
sg18
F0.1875
sg19
F122.5
sg20
I16
sg21
I23
sg22
I22856
sg23
F7.65625
sg24
VTommy Vardell
p1182
ssg26
(dp1183
g28
F9.8461538461538467
sg29
I0
sg30
F0
sg31
I369
sg32
F3.7272727272727271
sg33
I13
sg34
F0
sg35
I128
sg36
F0
sg37
I0
sg38
F26.357142857142858
sg39
F9.1428571428571423
sg40
I99
sg41
F0
sg42
F62.700000000000003
sg43
I14
sg44
I13
sg45
I22856
sg46
F4.4785714285714286
sg47
VTommy Vardell
p1184
ssg49
VTommy Vardell
p1185
sg51
I22856
sa(dp1186
g3
(dp1187
g5
F7.5555555555555554
sg6
I3
sg7
F0.13333333333333333
sg8
I916
sg9
F3.1916376306620209
sg10
I45
sg11
F0.010452961672473868
sg12
I340
sg13
F0.044444444444444446
sg14
I2
sg15
F61.06666666666667
sg16
F22.666666666666668
sg17
I287
sg18
F0.20000000000000001
sg19
F200.59999999999999
sg20
I15
sg21
I68
sg22
I6487
sg23
F13.373333333333333
sg24
VCurtis Enis
p1188
ssg26
(dp1189
g28
F3.3333333333333335
sg29
I0
sg30
F0
sg31
I497
sg32
F3.736842105263158
sg33
I6
sg34
F0
sg35
I20
sg36
F0
sg37
I0
sg38
F55.222222222222221
sg39
F2.2222222222222223
sg40
I133
sg41
F0
sg42
F57.700000000000003
sg43
I9
sg44
I8
sg45
I6487
sg46
F6.4111111111111114
sg47
VCurtis Enis
p1190
ssg49
VCurtis Enis
p1191
sg51
I6487
sa(dp1192
g3
(dp1193
g5
F9.8571428571428577
sg6
I7
sg7
F0
sg8
I833
sg9
F3.4139344262295084
sg10
I21
sg11
F0.028688524590163935
sg12
I207
sg13
F0
sg14
I0
sg15
F59.5
sg16
F14.785714285714286
sg17
I244
sg18
F0.5
sg19
F167
sg20
I14
sg21
I0
sg22
I21221
sg23
F11.928571428571429
sg24
VJohn Stephens
p1194
ssg26
(dp1195
g28
F7
sg29
I4
sg30
F0
sg31
I1168
sg32
F3.9326599326599325
sg33
I14
sg34
F0.013468013468013467
sg35
I98
sg36
F0
sg37
I0
sg38
F73
sg39
F6.125
sg40
I297
sg41
F0.25
sg42
F164.59999999999999
sg43
I16
sg44
I0
sg45
I21221
sg46
F10.2875
sg47
VJohn Stephens
p1196
ssg49
VJohn Stephens
p1197
sg51
I21221
sa(dp1198
g3
(dp1199
g5
F7.875
sg6
I2
sg7
F0
sg8
I495
sg9
F3.2781456953642385
sg10
I32
sg11
F0.013245033112582781
sg12
I252
sg13
F0
sg14
I0
sg15
F30.9375
sg16
F15.75
sg17
I151
sg18
F0.125
sg19
F118.7
sg20
I16
sg21
I42
sg22
I6523
sg23
F7.4187500000000002
sg24
VRicky Ervins
p1200
ssg26
(dp1201
g28
F10.789473684210526
sg29
I4
sg30
F0.055555555555555552
sg31
I909
sg32
F4.6855670103092786
sg33
I19
sg34
F0.020618556701030927
sg35
I205
sg36
F0.052631578947368418
sg37
I1
sg38
F50.5
sg39
F11.388888888888889
sg40
I194
sg41
F0.22222222222222221
sg42
F160.40000000000001
sg43
I18
sg44
I0
sg45
I6523
sg46
F8.9111111111111114
sg47
VRicky Ervins
p1202
ssg49
VRicky Ervins
p1203
sg51
I6523
sa(dp1204
g3
(dp1205
g5
F6.3571428571428568
sg6
I5
sg7
F0
sg8
I1247
sg9
F3.8369230769230769
sg10
I28
sg11
F0.015384615384615385
sg12
I178
sg13
F0
sg14
I0
sg15
F77.9375
sg16
F11.125
sg17
I325
sg18
F0.3125
sg19
F200.5
sg20
I16
sg21
I37
sg22
I14741
sg23
F12.53125
sg24
VWillis McGahee
p1206
ssg26
(dp1207
g28
F7.6818181818181817
sg29
I13
sg30
F0
sg31
I1128
sg32
F3.971830985915493
sg33
I22
sg34
F0.045774647887323945
sg35
I169
sg36
F0
sg37
I0
sg38
F70.5
sg39
F10.5625
sg40
I284
sg41
F0.8125
sg42
F229.69999999999999
sg43
I16
sg44
I36
sg45
I14741
sg46
F14.356249999999999
sg47
VWillis McGahee
p1208
ssg49
VWillis McGahee
p1209
sg51
I14741
sa(dp1210
g3
(dp1211
g5
F11.666666666666666
sg6
I1
sg7
F0
sg8
I357
sg9
F3.4326923076923075
sg10
I21
sg11
F0.0096153846153846159
sg12
I245
sg13
F0
sg14
I0
sg15
F29.75
sg16
F20.416666666666668
sg17
I104
sg18
F0.083333333333333329
sg19
F87.200000000000003
sg20
I12
sg21
I36
sg22
I14725
sg23
F7.2666666666666666
sg24
VDarren McFadden
p1212
ssg26
(dp1213
g28
F9.8275862068965516
sg29
I4
sg30
F0
sg31
I499
sg32
F4.4159292035398234
sg33
I29
sg34
F0.035398230088495575
sg35
I285
sg36
F0
sg37
I0
sg38
F38.384615384615387
sg39
F21.923076923076923
sg40
I113
sg41
F0.30769230769230771
sg42
F131.40000000000001
sg43
I13
sg44
I39
sg45
I14725
sg46
F10.107692307692307
sg47
VDarren McFadden
p1214
ssg49
VDarren McFadden
p1215
sg51
I14725
sa(dp1216
g3
(dp1217
g5
F15.625
sg6
I3
sg7
F0.44444444444444442
sg8
I597
sg9
F4.6640625
sg10
I24
sg11
F0.0234375
sg12
I375
sg13
F0.16666666666666666
sg14
I4
sg15
F66.333333333333329
sg16
F41.666666666666664
sg17
I128
sg18
F0.33333333333333331
sg19
F163.19999999999999
sg20
I9
sg21
I0
sg22
I6700
sg23
F18.133333333333333
sg24
VMel Farr
p1218
ssg26
(dp1219
g28
F8.1282051282051277
sg29
I3
sg30
F0.23076923076923078
sg31
I860
sg32
F4.174757281553398
sg33
I39
sg34
F0.014563106796116505
sg35
I317
sg36
F0.076923076923076927
sg37
I3
sg38
F66.15384615384616
sg39
F24.384615384615383
sg40
I206
sg41
F0.23076923076923078
sg42
F192.69999999999999
sg43
I13
sg44
I0
sg45
I6700
sg46
F14.823076923076922
sg47
VMel Farr
p1220
ssg49
VMel Farr
p1221
sg51
I6700
sa(dp1222
g3
(dp1223
g5
F11.916666666666666
sg6
I7
sg7
F0.083333333333333329
sg8
I891
sg9
F4.2631578947368425
sg10
I60
sg11
F0.033492822966507178
sg12
I715
sg13
F0.016666666666666666
sg14
I1
sg15
F74.25
sg16
F59.583333333333336
sg17
I209
sg18
F0.58333333333333337
sg19
F268.60000000000002
sg20
I12
sg21
I0
sg22
I23099
sg23
F22.383333333333336
sg24
VHerschel Walker
p1224
ssg26
(dp1225
g28
F11.013157894736842
sg29
I12
sg30
F0.125
sg31
I737
sg32
F4.8807947019867548
sg33
I76
sg34
F0.079470198675496692
sg35
I837
sg36
F0.026315789473684209
sg37
I2
sg38
F46.0625
sg39
F52.3125
sg40
I151
sg41
F0.75
sg42
F317.39999999999998
sg43
I16
sg44
I0
sg45
I23099
sg46
F19.837499999999999
sg47
VHerschel Walker
p1226
ssg49
VHerschel Walker
p1227
sg51
I23099
sa(dp1228
g3
(dp1229
g5
F8.4821428571428577
sg6
I11
sg7
F0.17647058823529413
sg8
I1094
sg9
F3.7724137931034485
sg10
I56
sg11
F0.03793103448275862
sg12
I475
sg13
F0.053571428571428568
sg14
I3
sg15
F64.352941176470594
sg16
F27.941176470588236
sg17
I290
sg18
F0.6470588235294118
sg19
F296.89999999999998
sg20
I17
sg21
I74
sg22
I6728
sg23
F17.464705882352941
sg24
VMarshall Faulk
p1230
ssg26
(dp1231
g28
F10.038461538461538
sg29
I11
sg30
F0.0625
sg31
I1282
sg32
F4.0828025477707008
sg33
I52
sg34
F0.035031847133757961
sg35
I522
sg36
F0.019230769230769232
sg37
I1
sg38
F80.125
sg39
F32.625
sg40
I314
sg41
F0.6875
sg42
F304.39999999999998
sg43
I16
sg44
I74
sg45
I6728
sg46
F19.024999999999999
sg47
VMarshall Faulk
p1232
ssg49
VMarshall Faulk
p1233
sg51
I6728
sa(dp1234
g3
(dp1235
g5
F6
sg6
I1
sg7
F0
sg8
I305
sg9
F3.0198019801980198
sg10
I15
sg11
F0.0099009900990099011
sg12
I90
sg13
F0
sg14
I0
sg15
F33.888888888888886
sg16
F10
sg17
I101
sg18
F0.1111111111111111
sg19
F60.5
sg20
I9
sg21
I0
sg22
I14953
sg23
F6.7222222222222223
sg24
VRandy McMillan
p1236
ssg26
(dp1237
g28
F9.3200000000000003
sg29
I3
sg30
F0.0625
sg31
I597
sg32
F4.0067114093959733
sg33
I50
sg34
F0.020134228187919462
sg35
I466
sg36
F0.02
sg37
I1
sg38
F37.3125
sg39
F29.125
sg40
I149
sg41
F0.1875
sg42
F180.30000000000001
sg43
I16
sg44
I0
sg45
I14953
sg46
F11.268750000000001
sg47
VRandy McMillan
p1238
ssg49
VRandy McMillan
p1239
sg51
I14953
sa(dp1240
g3
(dp1241
g5
F11.368421052631579
sg6
I7
sg7
F0.083333333333333329
sg8
I1135
sg9
F5.3537735849056602
sg10
I19
sg11
F0.033018867924528301
sg12
I216
sg13
F0.052631578947368418
sg14
I1
sg15
F94.583333333333329
sg16
F18
sg17
I212
sg18
F0.58333333333333337
sg19
F202.09999999999999
sg20
I12
sg21
I0
sg22
I14986
sg23
F16.841666666666665
sg24
VFreeman McNeil
p1242
ssg26
(dp1243
g28
F9.5
sg29
I2
sg30
F0.083333333333333329
sg31
I655
sg32
F4.3959731543624159
sg33
I18
sg34
F0.013422818791946308
sg35
I171
sg36
F0.055555555555555552
sg37
I1
sg38
F54.583333333333336
sg39
F14.25
sg40
I149
sg41
F0.16666666666666666
sg42
F118.59999999999999
sg43
I12
sg44
I0
sg45
I14986
sg46
F9.8833333333333329
sg47
VFreeman McNeil
p1244
ssg49
VFreeman McNeil
p1245
sg51
I14986
sa(dp1246
g3
(dp1247
g5
F9.0384615384615383
sg6
I3
sg7
F0.11764705882352941
sg8
I477
sg9
F3.4316546762589928
sg10
I26
sg11
F0.021582733812949641
sg12
I235
sg13
F0.076923076923076927
sg14
I2
sg15
F28.058823529411764
sg16
F13.823529411764707
sg17
I139
sg18
F0.17647058823529413
sg19
F127.2
sg20
I17
sg21
I0
sg22
I6808
sg23
F7.4823529411764707
sg24
VGill Fenerty
p1248
ssg26
(dp1249
g28
F10.5
sg29
I2
sg30
F0
sg31
I384
sg32
F4.7407407407407405
sg33
I22
sg34
F0.024691358024691357
sg35
I231
sg36
F0
sg37
I0
sg38
F24
sg39
F14.4375
sg40
I81
sg41
F0.125
sg42
F95.5
sg43
I16
sg44
I0
sg45
I6808
sg46
F5.96875
sg47
VGill Fenerty
p1250
ssg49
VGill Fenerty
p1251
sg51
I6808
sa(dp1252
g3
(dp1253
g5
F6.0888888888888886
sg6
I14
sg7
F0
sg8
I1591
sg9
F3.9775
sg10
I45
sg11
F0.035000000000000003
sg12
I274
sg13
F0
sg14
I0
sg15
F83.736842105263165
sg16
F14.421052631578947
sg17
I400
sg18
F0.73684210526315785
sg19
F315.5
sg20
I19
sg21
I52
sg22
I15055
sg23
F16.605263157894736
sg24
VNatrone Means
p1254
ssg26
(dp1255
g28
F5.9000000000000004
sg29
I8
sg30
F0
sg31
I645
sg32
F4.03125
sg33
I10
sg34
F0.050000000000000003
sg35
I59
sg36
F0
sg37
I0
sg38
F40.3125
sg39
F3.6875
sg40
I160
sg41
F0.5
sg42
F128.40000000000001
sg43
I16
sg44
I18
sg45
I15055
sg46
F8.0250000000000004
sg47
VNatrone Means
p1256
ssg49
VNatrone Means
p1257
sg51
I15055
sa(dp1258
g3
(dp1259
g5
F5
sg6
I1
sg7
F0
sg8
I559
sg9
F3.936619718309859
sg10
I10
sg11
F0.0070422535211267607
sg12
I50
sg13
F0
sg14
I0
sg15
F79.857142857142861
sg16
F7.1428571428571432
sg17
I142
sg18
F0.14285714285714285
sg19
F76.900000000000006
sg20
I7
sg21
I14
sg22
I8412
sg23
F10.985714285714286
sg24
VWilliam Green
p1260
ssg26
(dp1261
g28
F6.7222222222222223
sg29
I7
sg30
F0
sg31
I917
sg32
F3.4216417910447761
sg33
I18
sg34
F0.026119402985074626
sg35
I121
sg36
F0
sg37
I0
sg38
F53.941176470588232
sg39
F7.117647058823529
sg40
I268
sg41
F0.41176470588235292
sg42
F163.80000000000001
sg43
I17
sg44
I29
sg45
I8412
sg46
F9.6352941176470601
sg47
VWilliam Green
p1262
ssg49
VWilliam Green
p1263
sg51
I8412
sa(dp1264
g3
(dp1265
g5
F5.916666666666667
sg6
I3
sg7
F0
sg8
I353
sg9
F4.971830985915493
sg10
I36
sg11
F0.042253521126760563
sg12
I213
sg13
F0
sg14
I0
sg15
F22.0625
sg16
F13.3125
sg17
I71
sg18
F0.1875
sg19
F110.59999999999999
sg20
I16
sg21
I51
sg22
I23345
sg23
F6.9124999999999996
sg24
VLeon Washington
p1266
ssg26
(dp1267
g28
F10.172413793103448
sg29
I4
sg30
F0
sg31
I700
sg32
F4.3209876543209873
sg33
I29
sg34
F0.024691358024691357
sg35
I295
sg36
F0
sg37
I0
sg38
F41.176470588235297
sg39
F17.352941176470587
sg40
I162
sg41
F0.23529411764705882
sg42
F152.5
sg43
I17
sg44
I38
sg45
I23345
sg46
F8.9705882352941178
sg47
VLeon Washington
p1268
ssg49
VLeon Washington
p1269
sg51
I23345
sa(dp1270
g3
(dp1271
g5
F9.4186046511627914
sg6
I16
sg7
F0.066666666666666666
sg8
I1105
sg9
F4.528688524590164
sg10
I43
sg11
F0.065573770491803282
sg12
I405
sg13
F0.023255813953488372
sg14
I1
sg15
F73.666666666666671
sg16
F27
sg17
I244
sg18
F1.0666666666666667
sg19
F296
sg20
I15
sg21
I59
sg22
I23431
sg23
F19.733333333333334
sg24
VRicky Watters
p1272
ssg26
(dp1273
g28
F9.6666666666666661
sg29
I9
sg30
F0.125
sg31
I1165
sg32
F4.957446808510638
sg33
I51
sg34
F0.038297872340425532
sg35
I493
sg36
F0.039215686274509803
sg37
I2
sg38
F72.8125
sg39
F30.8125
sg40
I235
sg41
F0.5625
sg42
F282.80000000000001
sg43
I16
sg44
I63
sg45
I23431
sg46
F17.675000000000001
sg47
VRicky Watters
p1274
ssg49
VRicky Watters
p1275
sg51
I23431
sa(dp1276
g3
(dp1277
g5
F10.952380952380953
sg6
I10
sg7
F0.375
sg8
I989
sg9
F3.86328125
sg10
I63
sg11
F0.0390625
sg12
I690
sg13
F0.095238095238095233
sg14
I6
sg15
F61.8125
sg16
F43.125
sg17
I256
sg18
F0.625
sg19
F326.89999999999998
sg20
I16
sg21
I0
sg22
I7143
sg23
F20.431249999999999
sg24
VChuck Foreman
p1278
ssg26
(dp1279
g28
F8.9795918367346932
sg29
I5
sg30
F0.13333333333333333
sg31
I935
sg32
F4.269406392694064
sg33
I49
sg34
F0.022831050228310501
sg35
I440
sg36
F0.040816326530612242
sg37
I2
sg38
F62.333333333333336
sg39
F29.333333333333332
sg40
I219
sg41
F0.33333333333333331
sg42
F228.5
sg43
I15
sg44
I0
sg45
I7143
sg46
F15.233333333333333
sg47
VChuck Foreman
p1280
ssg49
VChuck Foreman
p1281
sg51
I7143
sa(dp1282
g3
(dp1283
g5
F8.2631578947368425
sg6
I4
sg7
F0
sg8
I929
sg9
F3.6007751937984498
sg10
I57
sg11
F0.015503875968992248
sg12
I471
sg13
F0
sg14
I0
sg15
F58.0625
sg16
F29.4375
sg17
I258
sg18
F0.25
sg19
F221
sg20
I16
sg21
I72
sg22
I7164
sg23
F13.8125
sg24
VMatt Forte 
p1284
ssg26
(dp1285
g28
F7.5714285714285712
sg29
I8
sg30
F0.25
sg31
I1238
sg32
F3.9177215189873418
sg33
I63
sg34
F0.025316455696202531
sg35
I477
sg36
F0.063492063492063489
sg37
I4
sg38
F77.375
sg39
F29.8125
sg40
I316
sg41
F0.5
sg42
F306.5
sg43
I16
sg44
I76
sg45
I7164
sg46
F19.15625
sg47
VMatt Forte 
p1286
ssg49
VMatt Forte 
p1287
sg51
I7164
sa(dp1288
g3
(dp1289
g5
F11.1
sg6
I1
sg7
F0
sg8
I484
sg9
F3.4820143884892087
sg10
I10
sg11
F0.0071942446043165471
sg12
I111
sg13
F0
sg14
I0
sg15
F30.25
sg16
F6.9375
sg17
I139
sg18
F0.0625
sg19
F75.5
sg20
I16
sg21
I0
sg22
I15367
sg23
F4.71875
sg24
VTerry Miller
p1290
ssg26
(dp1291
g28
F11.181818181818182
sg29
I7
sg30
F0
sg31
I1060
sg32
F4.4537815126050422
sg33
I22
sg34
F0.029411764705882353
sg35
I246
sg36
F0
sg37
I0
sg38
F66.25
sg39
F15.375
sg40
I238
sg41
F0.4375
sg42
F194.59999999999999
sg43
I16
sg44
I0
sg45
I15367
sg46
F12.1625
sg47
VTerry Miller
p1292
ssg49
VTerry Miller
p1293
sg51
I15367
sa(dp1294
g3
(dp1295
g5
F10
sg6
I1
sg7
F0.15384615384615385
sg8
I352
sg9
F4.3456790123456788
sg10
I26
sg11
F0.012345679012345678
sg12
I260
sg13
F0.076923076923076927
sg14
I2
sg15
F27.076923076923077
sg16
F20
sg17
I81
sg18
F0.076923076923076927
sg19
F105.2
sg20
I13
sg21
I0
sg22
I7182
sg23
F8.092307692307692
sg24
VGene Foster 
p1296
ssg26
(dp1297
g28
F11.705882352941176
sg29
I2
sg30
F0
sg31
I478
sg32
F3.8861788617886179
sg33
I17
sg34
F0.016260162601626018
sg35
I199
sg36
F0
sg37
I0
sg38
F31.866666666666667
sg39
F13.266666666666667
sg40
I123
sg41
F0.13333333333333333
sg42
F96.700000000000003
sg43
I15
sg44
I0
sg45
I7182
sg46
F6.4466666666666672
sg47
VGene Foster 
p1298
ssg49
VGene Foster 
p1299
sg51
I7182
sa(dp1300
g3
(dp1301
g5
F14.800000000000001
sg6
I2
sg7
F0
sg8
I397
sg9
F3.4224137931034484
sg10
I5
sg11
F0.017241379310344827
sg12
I74
sg13
F0
sg14
I0
sg15
F30.53846153846154
sg16
F5.6923076923076925
sg17
I116
sg18
F0.15384615384615385
sg19
F64.099999999999994
sg20
I13
sg21
I8
sg22
I23582
sg23
F4.9307692307692301
sg24
VBeanie Wells
p1302
ssg26
(dp1303
g28
F11.916666666666666
sg29
I8
sg30
F0
sg31
I891
sg32
F4.569230769230769
sg33
I12
sg34
F0.041025641025641026
sg35
I143
sg36
F0
sg37
I0
sg38
F49.5
sg39
F7.9444444444444446
sg40
I195
sg41
F0.44444444444444442
sg42
F163.40000000000001
sg43
I18
sg44
I16
sg45
I23582
sg46
F9.0777777777777775
sg47
VBeanie Wells
p1304
ssg49
VBeanie Wells
p1305
sg51
I23582
sa(dp1306
g3
(dp1307
g5
F3
sg6
I9
sg7
F0
sg8
I1002
sg9
F3.9294117647058822
sg10
I3
sg11
F0.035294117647058823
sg12
I9
sg13
F0
sg14
I0
sg15
F77.07692307692308
sg16
F0.69230769230769229
sg17
I255
sg18
F0.69230769230769229
sg19
F158.09999999999999
sg20
I13
sg21
I0
sg22
I7276
sg23
F12.161538461538461
sg24
VAndra Franklin
p1308
ssg26
(dp1309
g28
F2
sg29
I7
sg30
F0.058823529411764705
sg31
I717
sg32
F3.4142857142857141
sg33
I3
sg34
F0.033333333333333333
sg35
I6
sg36
F0.33333333333333331
sg37
I1
sg38
F42.176470588235297
sg39
F0.35294117647058826
sg40
I210
sg41
F0.41176470588235292
sg42
F123.3
sg43
I17
sg44
I0
sg45
I7276
sg46
F7.2529411764705882
sg47
VAndra Franklin
p1310
ssg49
VAndra Franklin
p1311
sg51
I7276
sa(dp1312
g3
(dp1313
g5
F8.1111111111111107
sg6
I1
sg7
F0
sg8
I342
sg9
F3.5257731958762886
sg10
I27
sg11
F0.010309278350515464
sg12
I219
sg13
F0
sg14
I0
sg15
F21.375
sg16
F13.6875
sg17
I97
sg18
F0.0625
sg19
F89.099999999999994
sg20
I16
sg21
I0
sg22
I23745
sg23
F5.5687499999999996
sg24
VCharles White
p1314
ssg26
(dp1315
g28
F9
sg29
I5
sg30
F0.066666666666666666
sg31
I279
sg32
F3.2441860465116279
sg33
I17
sg34
F0.058139534883720929
sg35
I153
sg36
F0.058823529411764705
sg37
I1
sg38
F18.600000000000001
sg39
F10.199999999999999
sg40
I86
sg41
F0.33333333333333331
sg42
F96.200000000000003
sg43
I15
sg44
I0
sg45
I23745
sg46
F6.4133333333333331
sg47
VCharles White
p1316
ssg49
VCharles White
p1317
sg51
I23745
sa(dp1318
g3
(dp1319
g5
F8.5272727272727273
sg6
I3
sg7
F0.071428571428571425
sg8
I595
sg9
F3.7658227848101267
sg10
I55
sg11
F0.018987341772151899
sg12
I469
sg13
F0.018181818181818181
sg14
I1
sg15
F42.5
sg16
F33.5
sg17
I158
sg18
F0.21428571428571427
sg19
F185.40000000000001
sg20
I14
sg21
I0
sg22
I7505
sg23
F13.242857142857144
sg24
VClark Gaines
p1320
ssg26
(dp1321
g28
F9.7560975609756095
sg29
I3
sg30
F0.14285714285714285
sg31
I724
sg32
F4.6114649681528661
sg33
I41
sg34
F0.019108280254777069
sg35
I400
sg36
F0.04878048780487805
sg37
I2
sg38
F51.714285714285715
sg39
F28.571428571428573
sg40
I157
sg41
F0.21428571428571427
sg42
F183.40000000000001
sg43
I14
sg44
I0
sg45
I7505
sg46
F13.1
sg47
VClark Gaines
p1322
ssg49
VClark Gaines
p1323
sg51
I7505
sa(dp1324
g3
(dp1325
g5
F6.4634146341463419
sg6
I3
sg7
F0
sg8
I644
sg9
F3.8333333333333335
sg10
I41
sg11
F0.017857142857142856
sg12
I265
sg13
F0
sg14
I0
sg15
F46
sg16
F18.928571428571427
sg17
I168
sg18
F0.21428571428571427
sg19
F149.90000000000001
sg20
I14
sg21
I0
sg22
I7526
sg23
F10.707142857142857
sg24
VTony Galbreath
p1326
ssg26
(dp1327
g28
F7.7777777777777777
sg29
I7
sg30
F0.071428571428571425
sg31
I570
sg32
F4.1911764705882355
sg33
I54
sg34
F0.051470588235294115
sg35
I420
sg36
F0.018518518518518517
sg37
I1
sg38
F40.714285714285715
sg39
F30
sg40
I136
sg41
F0.5
sg42
F201
sg43
I14
sg44
I0
sg45
I7526
sg46
F14.357142857142858
sg47
VTony Galbreath
p1328
ssg49
VTony Galbreath
p1329
sg51
I7526
sa(dp1330
g3
(dp1331
g5
F8.5636363636363644
sg6
I3
sg7
F0.10000000000000001
sg8
I417
sg9
F4.2989690721649483
sg10
I55
sg11
F0.030927835051546393
sg12
I471
sg13
F0.018181818181818181
sg14
I1
sg15
F41.700000000000003
sg16
F47.100000000000001
sg17
I97
sg18
F0.29999999999999999
sg19
F167.80000000000001
sg20
I10
sg21
I0
sg22
I23923
sg23
F16.780000000000001
sg24
VJames Wilder
p1332
ssg26
(dp1333
g28
F10.571428571428571
sg29
I4
sg30
F0.058823529411764705
sg31
I393
sg32
F3.5405405405405403
sg33
I49
sg34
F0.036036036036036036
sg35
I518
sg36
F0.020408163265306121
sg37
I1
sg38
F23.117647058823529
sg39
F30.470588235294116
sg40
I111
sg41
F0.23529411764705882
sg42
F170.09999999999999
sg43
I17
sg44
I0
sg45
I23923
sg46
F10.005882352941176
sg47
VJames Wilder
p1334
ssg49
VJames Wilder
p1335
sg51
I23923
sa(dp1336
g3
(dp1337
g5
F6.5
sg6
I4
sg7
F0.0625
sg8
I780
sg9
F3.3620689655172415
sg10
I8
sg11
F0.017241379310344827
sg12
I52
sg13
F0.125
sg14
I1
sg15
F48.75
sg16
F3.25
sg17
I232
sg18
F0.25
sg19
F121.2
sg20
I16
sg21
I11
sg22
I15733
sg23
F7.5750000000000002
sg24
VRonald Moore
p1338
ssg26
(dp1339
g28
F5.333333333333333
sg29
I9
sg30
F0
sg31
I1018
sg32
F3.8707224334600761
sg33
I3
sg34
F0.034220532319391636
sg35
I16
sg36
F0
sg37
I0
sg38
F63.625
sg39
F1
sg40
I263
sg41
F0.5625
sg42
F160.40000000000001
sg43
I16
sg44
I7
sg45
I15733
sg46
F10.025
sg47
VRonald Moore
p1340
ssg49
VRonald Moore
p1341
sg51
I15733
sa(dp1342
g3
(dp1343
g5
F10.054054054054054
sg6
I5
sg7
F0.23076923076923078
sg8
I779
sg9
F4.2802197802197801
sg10
I37
sg11
F0.027472527472527472
sg12
I372
sg13
F0.081081081081081086
sg14
I3
sg15
F59.92307692307692
sg16
F28.615384615384617
sg17
I182
sg18
F0.38461538461538464
sg19
F200.09999999999999
sg20
I13
sg21
I48
sg22
I15773
sg23
F15.392307692307693
sg24
VKnowshon Moreno
p1344
ssg26
(dp1345
g28
F7.6071428571428568
sg29
I7
sg30
F0.125
sg31
I947
sg32
F3.834008097165992
sg33
I28
sg34
F0.028340080971659919
sg35
I213
sg36
F0.071428571428571425
sg37
I2
sg38
F59.1875
sg39
F13.3125
sg40
I247
sg41
F0.4375
sg42
F198
sg43
I16
sg44
I41
sg45
I15773
sg46
F12.375
sg47
VKnowshon Moreno
p1346
ssg49
VKnowshon Moreno
p1347
sg51
I15773
sa(dp1348
g3
(dp1349
g5
F8.3571428571428577
sg6
I5
sg7
F0.14285714285714285
sg8
I763
sg9
F3.994764397905759
sg10
I42
sg11
F0.026178010471204188
sg12
I351
sg13
F0.047619047619047616
sg14
I2
sg15
F54.5
sg16
F25.071428571428573
sg17
I191
sg18
F0.35714285714285715
sg19
F195.40000000000001
sg20
I14
sg21
I0
sg22
I23966
sg23
F13.957142857142857
sg24
VKen Willard
p1350
ssg26
(dp1351
g28
F7.90625
sg29
I5
sg30
F0.2857142857142857
sg31
I778
sg32
F4.1164021164021163
sg33
I32
sg34
F0.026455026455026454
sg35
I253
sg36
F0.125
sg37
I4
sg38
F55.571428571428569
sg39
F18.071428571428573
sg40
I189
sg41
F0.35714285714285715
sg42
F189.09999999999999
sg43
I14
sg44
I0
sg45
I23966
sg46
F13.507142857142856
sg47
VKen Willard
p1352
ssg49
VKen Willard
p1353
sg51
I23966
sa(dp1354
g3
(dp1355
g5
F6.5333333333333332
sg6
I1
sg7
F0
sg8
I798
sg9
F3.5466666666666669
sg10
I30
sg11
F0.0044444444444444444
sg12
I196
sg13
F0
sg14
I0
sg15
F57
sg16
F14
sg17
I225
sg18
F0.071428571428571425
sg19
F135.40000000000001
sg20
I14
sg21
I44
sg22
I24008
sg23
F9.6714285714285726
sg24
VCadillac Williams
p1356
ssg26
(dp1357
g28
F3.9565217391304346
sg29
I6
sg30
F0
sg31
I1227
sg32
F3.9837662337662336
sg33
I23
sg34
F0.01948051948051948
sg35
I91
sg36
F0
sg37
I0
sg38
F81.799999999999997
sg39
F6.0666666666666664
sg40
I308
sg41
F0.40000000000000002
sg42
F190.80000000000001
sg43
I15
sg44
I28
sg45
I24008
sg46
F12.720000000000001
sg47
VCadillac Williams
p1358
ssg49
VCadillac Williams
p1359
sg51
I24008
sa(dp1360
g3
(dp1361
g5
F6.0999999999999996
sg6
I7
sg7
F0
sg8
I679
sg9
F5.4320000000000004
sg10
I10
sg11
F0.056000000000000001
sg12
I61
sg13
F0
sg14
I0
sg15
F39.941176470588232
sg16
F3.5882352941176472
sg17
I125
sg18
F0.41176470588235292
sg19
F126
sg20
I17
sg21
I15
sg22
I7625
sg23
F7.4117647058823533
sg24
VCharlie Garner
p1362
ssg26
(dp1363
g28
F9.25
sg29
I3
sg30
F0
sg31
I399
sg32
F3.6605504587155964
sg33
I8
sg34
F0.027522935779816515
sg35
I74
sg36
F0
sg37
I0
sg38
F39.899999999999999
sg39
F7.4000000000000004
sg40
I109
sg41
F0.29999999999999999
sg42
F73.299999999999997
sg43
I10
sg44
I12
sg45
I7625
sg46
F7.3300000000000001
sg47
VCharlie Garner
p1364
ssg49
VCharlie Garner
p1365
sg51
I7625
sa(dp1366
g3
(dp1367
g5
F4.2352941176470589
sg6
I13
sg7
F0
sg8
I747
sg9
F3.7537688442211055
sg10
I17
sg11
F0.065326633165829151
sg12
I72
sg13
F0
sg14
I0
sg15
F46.6875
sg16
F4.5
sg17
I199
sg18
F0.8125
sg19
F176.90000000000001
sg20
I16
sg21
I19
sg22
I15819
sg23
F11.05625
sg24
VBam Morris 
p1368
ssg26
(dp1369
g28
F8.8695652173913047
sg29
I7
sg30
F0
sg31
I898
sg32
F4.045045045045045
sg33
I23
sg34
F0.031531531531531529
sg35
I204
sg36
F0
sg37
I0
sg38
F52.823529411764703
sg39
F12
sg40
I222
sg41
F0.41176470588235292
sg42
F175.19999999999999
sg43
I17
sg44
I27
sg45
I15819
sg46
F10.305882352941175
sg47
VBam Morris 
p1370
ssg49
VBam Morris 
p1371
sg51
I15819
sa(dp1372
g3
(dp1373
g5
F8.3076923076923084
sg6
I4
sg7
F0
sg8
I272
sg9
F3.0909090909090908
sg10
I26
sg11
F0.045454545454545456
sg12
I216
sg13
F0
sg14
I0
sg15
F20.923076923076923
sg16
F16.615384615384617
sg17
I88
sg18
F0.30769230769230771
sg19
F98.799999999999997
sg20
I13
sg21
I0
sg22
I7641
sg23
F7.5999999999999996
sg24
VCarl Garrett
p1374
ssg26
(dp1375
g28
F9.2068965517241388
sg29
I5
sg30
F0.14285714285714285
sg31
I691
sg32
F5.0437956204379564
sg33
I29
sg34
F0.036496350364963501
sg35
I267
sg36
F0.068965517241379309
sg37
I2
sg38
F49.357142857142854
sg39
F19.071428571428573
sg40
I137
sg41
F0.35714285714285715
sg42
F166.80000000000001
sg43
I14
sg44
I0
sg45
I7641
sg46
F11.914285714285715
sg47
VCarl Garrett
p1376
ssg49
VCarl Garrett
p1377
sg51
I7641
sa(dp1378
g3
(dp1379
g5
F8.125
sg6
I2
sg7
F0
sg8
I336
sg9
F2.7096774193548385
sg10
I8
sg11
F0.016129032258064516
sg12
I65
sg13
F0
sg14
I0
sg15
F28
sg16
F5.416666666666667
sg17
I124
sg18
F0.16666666666666666
sg19
F60.100000000000001
sg20
I12
sg21
I0
sg22
I15834
sg23
F5.0083333333333337
sg24
VJamie Morris 
p1380
ssg26
(dp1381
g28
F3
sg29
I2
sg30
F0
sg31
I437
sg32
F3.4682539682539684
sg33
I1
sg34
F0.015873015873015872
sg35
I3
sg36
F0
sg37
I0
sg38
F27.3125
sg39
F0.1875
sg40
I126
sg41
F0.125
sg42
F57
sg43
I16
sg44
I0
sg45
I15834
sg46
F3.5625
sg47
VJamie Morris 
p1382
ssg49
VJamie Morris 
p1383
sg51
I15834
sa(dp1384
g3
(dp1385
g5
F5.6739130434782608
sg6
I9
sg7
F0.071428571428571425
sg8
I1087
sg9
F4.6059322033898304
sg10
I46
sg11
F0.038135593220338986
sg12
I261
sg13
F0.021739130434782608
sg14
I1
sg15
F77.642857142857139
sg16
F18.642857142857142
sg17
I236
sg18
F0.6428571428571429
sg19
F240.80000000000001
sg20
I14
sg21
I0
sg22
I7650
sg23
F17.199999999999999
sg24
VMike Garrett
p1386
ssg26
(dp1387
g28
F9.954545454545455
sg29
I8
sg30
F0.0625
sg31
I857
sg32
F5.1626506024096388
sg33
I22
sg34
F0.048192771084337352
sg35
I219
sg36
F0.045454545454545456
sg37
I1
sg38
F53.5625
sg39
F13.6875
sg40
I166
sg41
F0.5
sg42
F183.59999999999999
sg43
I16
sg44
I0
sg45
I7650
sg46
F11.475
sg47
VMike Garrett
p1388
ssg49
VMike Garrett
p1389
sg51
I7650
sa(dp1390
g3
(dp1391
g5
F7.6086956521739131
sg6
I4
sg7
F0.0625
sg8
I717
sg9
F4.979166666666667
sg10
I23
sg11
F0.027777777777777776
sg12
I175
sg13
F0.043478260869565216
sg14
I1
sg15
F44.8125
sg16
F10.9375
sg17
I144
sg18
F0.25
sg19
F142.19999999999999
sg20
I16
sg21
I38
sg22
I24043
sg23
F8.8874999999999993
sg24
VDeAngelo Williams
p1392
ssg26
(dp1393
g28
F9.4848484848484844
sg29
I1
sg30
F0.076923076923076927
sg31
I501
sg32
F4.1404958677685952
sg33
I33
sg34
F0.0082644628099173556
sg35
I313
sg36
F0.030303030303030304
sg37
I1
sg38
F38.53846153846154
sg39
F24.076923076923077
sg40
I121
sg41
F0.076923076923076927
sg42
F126.40000000000001
sg43
I13
sg44
I36
sg45
I24043
sg46
F9.7230769230769241
sg47
VDeAngelo Williams
p1394
ssg49
VDeAngelo Williams
p1395
sg51
I24043
sa(dp1396
g3
(dp1397
g5
F8.6470588235294112
sg6
I13
sg7
F0.066666666666666666
sg8
I1188
sg9
F3.9337748344370862
sg10
I68
sg11
F0.043046357615894038
sg12
I588
sg13
F0.014705882352941176
sg14
I1
sg15
F79.200000000000003
sg16
F39.200000000000003
sg17
I302
sg18
F0.8666666666666667
sg19
F329.60000000000002
sg20
I15
sg21
I84
sg22
I24054
sg23
F21.973333333333336
sg24
VDomanick Williams
p1398
ssg26
(dp1399
g28
F7.4680851063829783
sg29
I8
sg30
F0
sg31
I1031
sg32
F4.3319327731092434
sg33
I47
sg34
F0.033613445378151259
sg35
I351
sg36
F0
sg37
I0
sg38
F73.642857142857139
sg39
F25.071428571428573
sg40
I238
sg41
F0.5714285714285714
sg42
F233.19999999999999
sg43
I14
sg44
I68
sg45
I24054
sg46
F16.657142857142855
sg47
VDomanick Williams
p1400
ssg49
VDomanick Williams
p1401
sg51
I24054
sa(dp1402
g3
(dp1403
g5
F6.2857142857142856
sg6
I6
sg7
F0.0625
sg8
I1399
sg9
F3.918767507002801
sg10
I7
sg11
F0.01680672268907563
sg12
I44
sg13
F0.14285714285714285
sg14
I1
sg15
F87.4375
sg16
F2.75
sg17
I357
sg18
F0.375
sg19
F193.30000000000001
sg20
I16
sg21
I12
sg22
I7763
sg23
F12.081250000000001
sg24
VEddie George
p1404
ssg26
(dp1405
g28
F7.9130434782608692
sg29
I8
sg30
F0
sg31
I1368
sg32
F4.0835820895522392
sg33
I23
sg34
F0.023880597014925373
sg35
I182
sg36
F0
sg37
I0
sg38
F85.5
sg39
F11.375
sg40
I335
sg41
F0.5
sg42
F226
sg43
I16
sg44
I28
sg45
I7763
sg46
F14.125
sg47
VEddie George
p1406
ssg49
VEddie George
p1407
sg51
I7763
sa(dp1408
g3
(dp1409
g5
F8.2608695652173907
sg6
I1
sg7
F0.1875
sg8
I531
sg9
F4.8715596330275233
sg10
I23
sg11
F0.0091743119266055051
sg12
I190
sg13
F0.13043478260869565
sg14
I3
sg15
F33.1875
sg16
F11.875
sg17
I109
sg18
F0.0625
sg19
F119.09999999999999
sg20
I16
sg21
I28
sg22
I7783
sg23
F7.4437499999999996
sg24
VToby Gerhart 
p1410
ssg26
(dp1411
g28
F7.9523809523809526
sg29
I1
sg30
F0
sg31
I322
sg32
F3.9753086419753085
sg33
I21
sg34
F0.012345679012345678
sg35
I167
sg36
F0
sg37
I0
sg38
F21.466666666666665
sg39
F11.133333333333333
sg40
I81
sg41
F0.066666666666666666
sg42
F75.900000000000006
sg43
I15
sg44
I29
sg45
I7783
sg46
F5.0600000000000005
sg47
VToby Gerhart 
p1412
ssg49
VToby Gerhart 
p1413
sg51
I7783
sa(dp1414
g3
(dp1415
g5
F11.80952380952381
sg6
I6
sg7
F0.071428571428571425
sg8
I811
sg9
F4.0348258706467659
sg10
I21
sg11
F0.029850746268656716
sg12
I248
sg13
F0.047619047619047616
sg14
I1
sg15
F57.928571428571431
sg16
F17.714285714285715
sg17
I201
sg18
F0.42857142857142855
sg19
F168.90000000000001
sg20
I14
sg21
I0
sg22
I16024
sg23
F12.064285714285715
sg24
VChuck Muncie
p1416
ssg26
(dp1417
g28
F8.7741935483870961
sg29
I2
sg30
F0
sg31
I659
sg32
F4.4228187919463089
sg33
I31
sg34
F0.013422818791946308
sg35
I272
sg36
F0
sg37
I0
sg38
F54.916666666666664
sg39
F22.666666666666668
sg40
I149
sg41
F0.16666666666666666
sg42
F136.09999999999999
sg43
I12
sg44
I0
sg45
I16024
sg46
F11.341666666666667
sg47
VChuck Muncie
p1418
ssg49
VChuck Muncie
p1419
sg51
I16024
sa(dp1420
g3
(dp1421
g5
F9.1333333333333329
sg6
I8
sg7
F0.090909090909090912
sg8
I1014
sg9
F3.9921259842519685
sg10
I45
sg11
F0.031496062992125984
sg12
I411
sg13
F0.022222222222222223
sg14
I1
sg15
F92.181818181818187
sg16
F37.363636363636367
sg17
I254
sg18
F0.72727272727272729
sg19
F241.5
sg20
I11
sg21
I57
sg22
I24219
sg23
F21.954545454545453
sg24
VRicky Williams
p1422
ssg26
(dp1423
g28
F6.1428571428571432
sg29
I2
sg30
F0
sg31
I884
sg32
F3.4940711462450591
sg33
I28
sg34
F0.0079051383399209481
sg35
I172
sg36
F0
sg37
I0
sg38
F73.666666666666671
sg39
F14.333333333333334
sg40
I253
sg41
F0.16666666666666666
sg42
F145.59999999999999
sg43
I12
sg44
I40
sg45
I24219
sg46
F12.133333333333333
sg47
VRicky Williams
p1424
ssg49
VRicky Williams
p1425
sg51
I24219
sa(dp1426
g3
(dp1427
g5
F7.1714285714285717
sg6
I4
sg7
F0
sg8
I663
sg9
F4.1180124223602483
sg10
I35
sg11
F0.024844720496894408
sg12
I251
sg13
F0
sg14
I0
sg15
F66.299999999999997
sg16
F25.100000000000001
sg17
I161
sg18
F0.40000000000000002
sg19
F150.40000000000001
sg20
I10
sg21
I42
sg22
I16086
sg23
F15.040000000000001
sg24
VDeMarco Murray
p1428
ssg26
(dp1429
g28
F7.0384615384615383
sg29
I2
sg30
F0
sg31
I897
sg32
F5.4695121951219514
sg33
I26
sg34
F0.012195121951219513
sg35
I183
sg36
F0
sg37
I0
sg38
F69
sg39
F14.076923076923077
sg40
I164
sg41
F0.15384615384615385
sg42
F146
sg43
I13
sg44
I35
sg45
I16086
sg46
F11.23076923076923
sg47
VDeMarco Murray
p1430
ssg49
VDeMarco Murray
p1431
sg51
I16086
sa(dp1432
g3
(dp1433
g5
F6.5999999999999996
sg6
I0
sg7
F0.15384615384615385
sg8
I461
sg9
F3.4402985074626864
sg10
I45
sg11
F0
sg12
I297
sg13
F0.044444444444444446
sg14
I2
sg15
F35.46153846153846
sg16
F22.846153846153847
sg17
I134
sg18
F0
sg19
F132.80000000000001
sg20
I13
sg21
I0
sg22
I24310
sg23
F10.215384615384616
sg24
VFred Willis
p1434
ssg26
(dp1435
g28
F9.2916666666666661
sg29
I7
sg30
F0
sg31
I590
sg32
F4.3703703703703702
sg33
I24
sg34
F0.05185185185185185
sg35
I223
sg36
F0
sg37
I0
sg38
F42.142857142857146
sg39
F15.928571428571429
sg40
I135
sg41
F0.5
sg42
F147.30000000000001
sg43
I14
sg44
I0
sg45
I24310
sg46
F10.521428571428572
sg47
VFred Willis
p1436
ssg49
VFred Willis
p1437
sg51
I24310
sa(dp1438
g3
(dp1439
g5
F12.875
sg6
I11
sg7
F0
sg8
I1458
sg9
F4.8762541806020065
sg10
I8
sg11
F0.03678929765886288
sg12
I103
sg13
F0
sg14
I0
sg15
F104.14285714285714
sg16
F7.3571428571428568
sg17
I299
sg18
F0.7857142857142857
sg19
F230.09999999999999
sg20
I14
sg21
I0
sg22
I16176
sg23
F16.435714285714287
sg24
VJim Nance
p1440
ssg26
(dp1441
g28
F6.916666666666667
sg29
I5
sg30
F0
sg31
I321
sg32
F2.8918918918918921
sg33
I12
sg34
F0.045045045045045043
sg35
I83
sg36
F0
sg37
I0
sg38
F24.692307692307693
sg39
F6.384615384615385
sg40
I111
sg41
F0.38461538461538464
sg42
F82.400000000000006
sg43
I13
sg44
I0
sg45
I16176
sg46
F6.338461538461539
sg47
VJim Nance
p1442
ssg49
VJim Nance
p1443
sg51
I16176
sa(dp1444
g3
(dp1445
g5
F13.636363636363637
sg6
I6
sg7
F0.10000000000000001
sg8
I1486
sg9
F4.4358208955223883
sg10
I33
sg11
F0.017910447761194031
sg12
I450
sg13
F0.060606060606060608
sg14
I2
sg15
F74.299999999999997
sg16
F22.5
sg17
I335
sg18
F0.29999999999999999
sg19
F274.60000000000002
sg20
I20
sg21
I0
sg22
I10899
sg23
F13.73
sg24
VCraig James
p1446
ssg26
(dp1447
g28
F7.2272727272727275
sg29
I1
sg30
F0
sg31
I790
sg32
F4.9375
sg33
I22
sg34
F0.0062500000000000003
sg35
I159
sg36
F0
sg37
I0
sg38
F52.666666666666664
sg39
F10.6
sg40
I160
sg41
F0.066666666666666666
sg42
F122.90000000000001
sg43
I15
sg44
I0
sg45
I10899
sg46
F8.1933333333333334
sg47
VCraig James
p1448
ssg49
VCraig James
p1449
sg51
I10899
sa(dp1450
g3
(dp1451
g5
F8.3636363636363633
sg6
I5
sg7
F0
sg8
I1008
sg9
F4.1825726141078841
sg10
I33
sg11
F0.020746887966804978
sg12
I276
sg13
F0
sg14
I0
sg15
F77.538461538461533
sg16
F21.23076923076923
sg17
I241
sg18
F0.38461538461538464
sg19
F191.40000000000001
sg20
I13
sg21
I38
sg22
I2723
sg23
F14.723076923076924
sg24
VRonnie Brown
p1452
ssg26
(dp1453
g28
F7.25
sg29
I4
sg30
F0.066666666666666666
sg31
I907
sg32
F4.3816425120772946
sg33
I32
sg34
F0.01932367149758454
sg35
I232
sg36
F0.03125
sg37
I1
sg38
F60.466666666666669
sg39
F15.466666666666667
sg40
I207
sg41
F0.26666666666666666
sg42
F175.90000000000001
sg43
I15
sg44
I47
sg45
I2723
sg46
F11.726666666666667
sg47
VRonnie Brown
p1454
ssg49
VRonnie Brown
p1455
sg51
I2723
sa(dp1456
g3
(dp1457
g5
F8.6666666666666661
sg6
I7
sg7
F0
sg8
I1275
sg9
F4.6195652173913047
sg10
I9
sg11
F0.025362318840579712
sg12
I78
sg13
F0
sg14
I0
sg15
F79.6875
sg16
F4.875
sg17
I276
sg18
F0.4375
sg19
F186.30000000000001
sg20
I16
sg21
I12
sg22
I15817
sg23
F11.643750000000001
sg24
VAlfred Morris 
p1458
ssg26
(dp1459
g28
F7
sg29
I13
sg30
F0
sg31
I1693
sg32
F4.8233618233618234
sg33
I11
sg34
F0.037037037037037035
sg35
I77
sg36
F0
sg37
I0
sg38
F99.588235294117652
sg39
F4.5294117647058822
sg40
I351
sg41
F0.76470588235294112
sg42
F266
sg43
I17
sg44
I16
sg45
I15817
sg46
F15.647058823529411
sg47
VAlfred Morris 
p1460
ssg49
VAlfred Morris 
p1461
sg51
I15817
sa(dp1462
g3
(dp1463
g5
F10.219512195121951
sg6
I10
sg7
F0.15384615384615385
sg8
I997
sg9
F3.9251968503937009
sg10
I41
sg11
F0.03937007874015748
sg12
I419
sg13
F0.04878048780487805
sg14
I2
sg15
F76.692307692307693
sg16
F32.230769230769234
sg17
I254
sg18
F0.76923076923076927
sg19
F254.59999999999999
sg20
I13
sg21
I57
sg22
I8145
sg23
F19.584615384615383
sg24
VMelvin Gordon
p1464
ssg26
(dp1465
g28
F5.8181818181818183
sg29
I0
sg30
F0
sg31
I641
sg32
F3.4836956521739131
sg33
I33
sg34
F0
sg35
I192
sg36
F0
sg37
I0
sg38
F45.785714285714285
sg39
F13.714285714285714
sg40
I184
sg41
F0
sg42
F116.3
sg43
I14
sg44
I37
sg45
I8145
sg46
F8.3071428571428569
sg47
VMelvin Gordon
p1466
ssg49
VMelvin Gordon
p1467
sg51
I8145
sa(dp1468
g3
(dp1469
g5
F7.9508196721311473
sg6
I8
sg7
F0.0625
sg8
I1695
sg9
F5.4326923076923075
sg10
I61
sg11
F0.02564102564102564
sg12
I485
sg13
F0.016393442622950821
sg14
I1
sg15
F105.9375
sg16
F30.3125
sg17
I312
sg18
F0.5
sg19
F333
sg20
I16
sg21
I86
sg22
I8152
sg23
F20.8125
sg24
VFrank Gore
p1470
ssg26
(dp1471
g28
F8.7333333333333325
sg29
I3
sg30
F0
sg31
I608
sg32
F4.78740157480315
sg33
I15
sg34
F0.023622047244094488
sg35
I131
sg36
F0
sg37
I0
sg38
F43.428571428571431
sg39
F9.3571428571428577
sg40
I127
sg41
F0.21428571428571427
sg42
F106.90000000000001
sg43
I14
sg44
I22
sg45
I8152
sg46
F7.6357142857142861
sg47
VFrank Gore
p1472
ssg49
VFrank Gore
p1473
sg51
I8152
sa.