(lp1
(dp2
S'airYpR'
p3
F6.0434782608695654
sS'rushing_touchdowns'
p4
I11
sS'airTDpG'
p5
F0
sS'rushing_yards'
p6
I1116
sS'rushYpA'
p7
F3.6351791530944624
sS'receiving_receptions'
p8
I23
sS'rushTDpA'
p9
F0.035830618892508145
sS'receiving_yards'
p10
I139
sS'airTDpR'
p11
F0
sS'receiving_touchdowns'
p12
I0
sS'rushYpG'
p13
F69.75
sS'airYpG'
p14
F8.6875
sS'rushing_attempts'
p15
I307
sS'rushTDpG'
p16
F0.6875
sS'fantasyPoints'
p17
F214.5
sS'gamesPlayed'
p18
I16
sS'receiving_targets'
p19
I46
sS'ID'
p20
I8
sS'fantasyPointsPerGame'
p21
F13.40625
sS'name'
p22
VKarim Abdul-Jabbar
p23
sa(dp24
g3
F13.423076923076923
sg4
I7
sg5
F0.25
sg6
I1162
sg7
F5.1189427312775333
sg8
I26
sg9
F0.030837004405286344
sg10
I349
sg11
F0.11538461538461539
sg12
I3
sg13
F96.833333333333329
sg14
F29.083333333333332
sg15
I227
sg16
F0.58333333333333337
sg17
F237.09999999999999
sg18
I12
sg19
I0
sg20
I24632
sg21
F19.758333333333333
sg22
VDon Woods
p25
sa(dp26
g3
F9.0256410256410255
sg4
I3
sg5
F0.125
sg6
I195
sg7
F2.3493975903614457
sg8
I39
sg9
F0.03614457831325301
sg10
I352
sg11
F0.05128205128205128
sg12
I2
sg13
F12.1875
sg14
F22
sg15
I83
sg16
F0.1875
sg17
F123.7
sg18
I16
sg19
I0
sg20
I24653
sg21
F7.7312500000000002
sg22
VKeith Woodside
p27
sa(dp28
g3
F4.4848484848484844
sg4
I11
sg5
F0
sg6
I1186
sg7
F5.2017543859649127
sg8
I33
sg9
F0.048245614035087717
sg10
I148
sg11
F0
sg12
I0
sg13
F69.764705882352942
sg14
F8.7058823529411757
sg15
I228
sg16
F0.6470588235294118
sg17
F232.40000000000001
sg18
I17
sg19
I42
sg20
I8278
sg21
F13.670588235294119
sg22
VRyan Grant
p29
sa(dp30
g3
F9.7391304347826093
sg4
I2
sg5
F0.22222222222222221
sg6
I439
sg7
F3.9196428571428572
sg8
I23
sg9
F0.017857142857142856
sg10
I224
sg11
F0.086956521739130432
sg12
I2
sg13
F48.777777777777779
sg14
F24.888888888888889
sg15
I112
sg16
F0.22222222222222221
sg17
F113.3
sg18
I9
sg19
I0
sg20
I24665
sg21
F12.588888888888889
sg22
VButch Woolfolk
p31
sa(dp32
g3
F7.145161290322581
sg4
I9
sg5
F0.050000000000000003
sg6
I1375
sg7
F4.5529801324503314
sg8
I62
sg9
F0.029801324503311258
sg10
I443
sg11
F0.016129032258064516
sg12
I1
sg13
F68.75
sg14
F22.149999999999999
sg15
I302
sg16
F0.45000000000000001
sg17
F303.80000000000001
sg18
I20
sg19
I73
sg20
I108
sg21
F15.190000000000001
sg22
VJoseph Addai
p33
sa(dp34
g3
F8.4499999999999993
sg4
I6
sg5
F0
sg6
I874
sg7
F3.9908675799086759
sg8
I20
sg9
F0.027397260273972601
sg10
I169
sg11
F0
sg12
I0
sg13
F51.411764705882355
sg14
F9.9411764705882355
sg15
I219
sg16
F0.35294117647058826
sg17
F160.30000000000001
sg18
I17
sg19
I0
sg20
I24688
sg21
F9.4294117647058826
sg22
VTim Worley
p35
sa(dp36
g3
F6.6799999999999997
sg4
I3
sg5
F0.076923076923076927
sg6
I497
sg7
F4.7788461538461542
sg8
I25
sg9
F0.028846153846153848
sg10
I167
sg11
F0.040000000000000001
sg12
I1
sg13
F38.230769230769234
sg14
F12.846153846153847
sg15
I104
sg16
F0.23076923076923078
sg17
F115.40000000000001
sg18
I13
sg19
I0
sg20
I8346
sg21
F8.8769230769230774
sg22
VBoyce Green
p37
sa(dp38
g3
F8.5
sg4
I2
sg5
F0
sg6
I633
sg7
F6.3939393939393936
sg8
I12
sg9
F0.020202020202020204
sg10
I102
sg11
F0
sg12
I0
sg13
F45.214285714285715
sg14
F7.2857142857142856
sg15
I99
sg16
F0.14285714285714285
sg17
F97.5
sg18
I14
sg19
I15
sg20
I16548
sg21
F6.9642857142857144
sg22
VJerious Norwood
p39
sa(dp40
g3
F5.9500000000000002
sg4
I7
sg5
F0
sg6
I513
sg7
F3.9767441860465116
sg8
I20
sg9
F0.054263565891472867
sg10
I119
sg11
F0
sg12
I0
sg13
F32.0625
sg14
F7.4375
sg15
I129
sg16
F0.4375
sg17
F125.2
sg18
I16
sg19
I0
sg20
I16557
sg21
F7.8250000000000002
sg22
VDon Nottingham 
p41
sa(dp42
g3
F7.5
sg4
I1
sg5
F0.14285714285714285
sg6
I408
sg7
F4.3404255319148932
sg8
I14
sg9
F0.010638297872340425
sg10
I105
sg11
F0.14285714285714285
sg12
I2
sg13
F29.142857142857142
sg14
F7.5
sg15
I94
sg16
F0.071428571428571425
sg17
F83.299999999999997
sg18
I14
sg19
I0
sg20
I8368
sg21
F5.9500000000000002
sg22
VHarold Green
p43
sa(dp44
g3
F9.5
sg4
I3
sg5
F0.10000000000000001
sg6
I509
sg7
F3.7703703703703701
sg8
I26
sg9
F0.022222222222222223
sg10
I247
sg11
F0.038461538461538464
sg12
I1
sg13
F50.899999999999999
sg14
F24.699999999999999
sg15
I135
sg16
F0.29999999999999999
sg17
F125.59999999999999
sg18
I10
sg19
I0
sg20
I8414
sg21
F12.559999999999999
sg22
VWoody Green
p45
sa(dp46
g3
F4
sg4
I4
sg5
F0
sg6
I844
sg7
F5.2098765432098766
sg8
I1
sg9
F0.024691358024691357
sg10
I4
sg11
F0
sg12
I0
sg13
F49.647058823529413
sg14
F0.23529411764705882
sg15
I162
sg16
F0.23529411764705882
sg17
F109.8
sg18
I17
sg19
I1
sg20
I8436
sg21
F6.4588235294117649
sg22
VShonn Greene
p47
sa(dp48
g3
F6.3214285714285712
sg4
I8
sg5
F0
sg6
I840
sg7
F4.3298969072164946
sg8
I28
sg9
F0.041237113402061855
sg10
I177
sg11
F0
sg12
I0
sg13
F52.5
sg14
F11.0625
sg15
I194
sg16
F0.5
sg17
F177.69999999999999
sg18
I16
sg19
I47
sg20
I20521
sg21
F11.106249999999999
sg22
VAntowain Smith
p49
sa(dp50
g3
F7.75
sg4
I2
sg5
F0.083333333333333329
sg6
I740
sg7
F4.0659340659340657
sg8
I36
sg9
F0.01098901098901099
sg10
I279
sg11
F0.027777777777777776
sg12
I1
sg13
F61.666666666666664
sg14
F23.25
sg15
I182
sg16
F0.16666666666666666
sg17
F155.90000000000001
sg18
I12
sg19
I46
sg20
I24845
sg21
F12.991666666666667
sg22
VT.J. Yeldon
p51
sa(dp52
g3
F11.941176470588236
sg4
I6
sg5
F0
sg6
I383
sg7
F3.015748031496063
sg8
I17
sg9
F0.047244094488188976
sg10
I203
sg11
F0
sg12
I0
sg13
F29.46153846153846
sg14
F15.615384615384615
sg15
I127
sg16
F0.46153846153846156
sg17
F111.59999999999999
sg18
I13
sg19
I0
sg20
I8487
sg21
F8.5846153846153843
sg22
VBob Gresham
p53
sa(dp54
g3
F8.625
sg4
I3
sg5
F0
sg6
I625
sg7
F4.5289855072463769
sg8
I16
sg9
F0.021739130434782608
sg10
I138
sg11
F0
sg12
I0
sg13
F44.642857142857146
sg14
F9.8571428571428577
sg15
I138
sg16
F0.21428571428571427
sg17
F110.3
sg18
I14
sg19
I0
sg20
I8499
sg21
F7.8785714285714281
sg22
VArchie Griffin
p55
sa(dp56
g3
F5.375
sg4
I0
sg5
F0
sg6
I408
sg7
F4.2061855670103094
sg8
I8
sg9
F0
sg10
I43
sg11
F0
sg12
I0
sg13
F24
sg14
F2.5294117647058822
sg15
I97
sg16
F0
sg17
F53.100000000000001
sg18
I17
sg19
I0
sg20
I8513
sg21
F3.1235294117647059
sg22
VKeith Griffin
p57
sa(dp58
g3
F10.26
sg4
I14
sg5
F0.27272727272727271
sg6
I805
sg7
F4.192708333333333
sg8
I50
sg9
F0.072916666666666671
sg10
I513
sg11
F0.059999999999999998
sg12
I3
sg13
F73.181818181818187
sg14
F46.636363636363633
sg15
I192
sg16
F1.2727272727272727
sg17
F283.80000000000001
sg18
I11
sg19
I0
sg20
I323
sg21
F25.800000000000001
sg22
VMarcus Allen
p59
sa(dp60
g3
F8.1666666666666661
sg4
I2
sg5
F0.066666666666666666
sg6
I563
sg7
F4.6916666666666664
sg8
I6
sg9
F0.016666666666666666
sg10
I49
sg11
F0.16666666666666666
sg12
I1
sg13
F37.533333333333331
sg14
F3.2666666666666666
sg15
I120
sg16
F0.13333333333333333
sg17
F85.200000000000003
sg18
I15
sg19
I0
sg20
I335
sg21
F5.6800000000000006
sg22
VTerry Allen
p61
sa(dp62
g3
F7.041666666666667
sg4
I3
sg5
F0
sg6
I660
sg7
F4.2038216560509554
sg8
I24
sg9
F0.019108280254777069
sg10
I169
sg11
F0
sg12
I0
sg13
F55
sg14
F14.083333333333334
sg15
I157
sg16
F0.25
sg17
F124.90000000000001
sg18
I12
sg19
I0
sg20
I16769
sg21
F10.408333333333333
sg22
VChristian Okoye
p63
sa(dp64
g3
F9.0666666666666664
sg4
I4
sg5
F0
sg6
I410
sg7
F4.0999999999999996
sg8
I15
sg9
F0.040000000000000001
sg10
I136
sg11
F0
sg12
I0
sg13
F24.117647058823529
sg14
F8
sg15
I100
sg16
F0.23529411764705882
sg17
F93.599999999999994
sg18
I17
sg19
I0
sg20
I8640
sg21
F5.5058823529411764
sg22
VMike Guman
p65
sa(dp66
g3
F12.057142857142857
sg4
I4
sg5
F0.16666666666666666
sg6
I429
sg7
F3.6982758620689653
sg8
I35
sg9
F0.034482758620689655
sg10
I422
sg11
F0.057142857142857141
sg12
I2
sg13
F35.75
sg14
F35.166666666666664
sg15
I116
sg16
F0.33333333333333331
sg17
F156.09999999999999
sg18
I12
sg19
I0
sg20
I449
sg21
F13.008333333333333
sg22
VGary Anderson 
p67
sa(dp68
g3
F8.9523809523809526
sg4
I10
sg5
F0
sg6
I1106
sg7
F4.8296943231441052
sg8
I21
sg9
F0.043668122270742356
sg10
I188
sg11
F0
sg12
I0
sg13
F85.07692307692308
sg14
F14.461538461538462
sg15
I229
sg16
F0.76923076923076927
sg17
F210.40000000000001
sg18
I13
sg19
I26
sg20
I8657
sg21
F16.184615384615384
sg22
VTodd Gurley
p69
sa(dp70
g3
F7.1600000000000001
sg4
I15
sg5
F0
sg6
I1527
sg7
F4.8942307692307692
sg8
I25
sg9
F0.04807692307692308
sg10
I179
sg11
F0
sg12
I0
sg13
F89.82352941176471
sg14
F10.529411764705882
sg15
I312
sg16
F0.88235294117647056
sg17
F285.60000000000002
sg18
I17
sg19
I34
sg20
I473
sg21
F16.800000000000001
sg22
VMike Anderson 
p71
sa(dp72
g3
F7.5121951219512191
sg4
I8
sg5
F0.125
sg6
I1605
sg7
F4.8489425981873113
sg8
I41
sg9
F0.024169184290030211
sg10
I308
sg11
F0.04878048780487805
sg12
I2
sg13
F100.3125
sg14
F19.25
sg15
I331
sg16
F0.5
sg17
F292.30000000000001
sg18
I16
sg19
I0
sg20
I476
sg21
F18.268750000000001
sg22
VOttis Anderson 
p73
sa(dp74
g3
F7.2692307692307692
sg4
I0
sg5
F0
sg6
I711
sg7
F3.9720670391061454
sg8
I26
sg9
F0
sg10
I189
sg11
F0
sg12
I0
sg13
F44.4375
sg14
F11.8125
sg15
I179
sg16
F0
sg17
F116
sg18
I16
sg19
I34
sg20
I17844
sg21
F7.25
sg22
VRoosevelt Potts
p75
sa(dp76
g3
F8.8666666666666671
sg4
I8
sg5
F0
sg6
I860
sg7
F3.5245901639344264
sg8
I45
sg9
F0.032786885245901641
sg10
I399
sg11
F0
sg12
I0
sg13
F66.15384615384616
sg14
F30.692307692307693
sg15
I244
sg16
F0.61538461538461542
sg17
F218.90000000000001
sg18
I13
sg19
I66
sg20
I1465
sg21
F16.838461538461537
sg22
VLe'Veon Bell
p77
sa(dp78
g3
F9.4090909090909083
sg4
I3
sg5
F0.071428571428571425
sg6
I546
sg7
F4.265625
sg8
I22
sg9
F0.0234375
sg10
I207
sg11
F0.045454545454545456
sg12
I1
sg13
F39
sg14
F14.785714285714286
sg15
I128
sg16
F0.21428571428571427
sg17
F121.3
sg18
I14
sg19
I0
sg20
I677
sg21
F8.6642857142857146
sg22
VJosh Ashton
p79
sa(dp80
g3
F7
sg4
I3
sg5
F0
sg6
I369
sg7
F3.5142857142857142
sg8
I8
sg9
F0.028571428571428571
sg10
I56
sg11
F0
sg12
I0
sg13
F20.5
sg14
F3.1111111111111112
sg15
I105
sg16
F0.16666666666666666
sg17
F68.5
sg18
I18
sg19
I0
sg20
I8925
sg21
F3.8055555555555554
sg22
VLorenzo Hampton 
p81
sa(dp82
g3
F8.5625
sg4
I2
sg5
F0.125
sg6
I458
sg7
F4.1261261261261257
sg8
I32
sg9
F0.018018018018018018
sg10
I274
sg11
F0.0625
sg12
I2
sg13
F28.625
sg14
F17.125
sg15
I111
sg16
F0.125
sg17
F129.19999999999999
sg18
I16
sg19
I0
sg20
I8926
sg21
F8.0749999999999993
sg22
VRodney Hampton 
p83
sa(dp84
g3
F8.6400000000000006
sg4
I2
sg5
F0.0625
sg6
I749
sg7
F4.2556818181818183
sg8
I25
sg9
F0.011363636363636364
sg10
I216
sg11
F0.040000000000000001
sg12
I1
sg13
F46.8125
sg14
F13.5
sg15
I176
sg16
F0.125
sg17
F139.5
sg18
I16
sg19
I0
sg20
I17147
sg21
F8.71875
sg22
VRick Parros
p85
sa(dp86
g3
F6.4545454545454541
sg4
I7
sg5
F0
sg6
I679
sg7
F3.4642857142857144
sg8
I33
sg9
F0.035714285714285712
sg10
I213
sg11
F0
sg12
I0
sg13
F52.230769230769234
sg14
F16.384615384615383
sg15
I196
sg16
F0.53846153846153844
sg17
F164.19999999999999
sg18
I13
sg19
I0
sg20
I17270
sg21
F12.63076923076923
sg22
VWalter Payton
p87
sa(dp88
g3
F7.0740740740740744
sg4
I1
sg5
F0
sg6
I453
sg7
F4.5300000000000002
sg8
I27
sg9
F0.01
sg10
I191
sg11
F0
sg12
I0
sg13
F34.846153846153847
sg14
F14.692307692307692
sg15
I100
sg16
F0.076923076923076927
sg17
F97.400000000000006
sg18
I13
sg19
I0
sg20
I9104
sg21
F7.4923076923076923
sg22
VRoland Harper
p89
sa(dp90
g3
F7.6764705882352944
sg4
I1
sg5
F0.14285714285714285
sg6
I359
sg7
F2.9669421487603307
sg8
I34
sg9
F0.0082644628099173556
sg10
I261
sg11
F0.058823529411764705
sg12
I2
sg13
F25.642857142857142
sg14
F18.642857142857142
sg15
I121
sg16
F0.071428571428571425
sg17
F114
sg18
I14
sg19
I0
sg20
I9116
sg21
F8.1428571428571423
sg22
VWillard Harrell
p91
sa(dp92
g3
F9.9642857142857135
sg4
I10
sg5
F0.125
sg6
I1195
sg7
F5.3828828828828827
sg8
I28
sg9
F0.045045045045045043
sg10
I279
sg11
F0.071428571428571425
sg12
I2
sg13
F74.6875
sg14
F17.4375
sg15
I222
sg16
F0.625
sg17
F247.40000000000001
sg18
I16
sg19
I0
sg20
I9167
sg21
F15.4625
sg22
VFranco Harris
p93
sa(dp94
g3
F6.3888888888888893
sg4
I5
sg5
F0
sg6
I538
sg7
F3.8985507246376812
sg8
I18
sg9
F0.036231884057971016
sg10
I115
sg11
F0
sg12
I0
sg13
F41.384615384615387
sg14
F8.8461538461538467
sg15
I138
sg16
F0.38461538461538464
sg17
F113.3
sg18
I13
sg19
I25
sg20
I1035
sg21
F8.7153846153846146
sg22
VMarion Barber
p95
sa(dp96
g3
F10.375
sg4
I4
sg5
F0.0625
sg6
I529
sg7
F4.069230769230769
sg8
I24
sg9
F0.030769230769230771
sg10
I249
sg11
F0.041666666666666664
sg12
I1
sg13
F33.0625
sg14
F15.5625
sg15
I130
sg16
F0.25
sg17
F131.80000000000001
sg18
I16
sg19
I31
sg20
I1075
sg21
F8.2375000000000007
sg22
VKevan Barlow
p97
sa(dp98
g3
F14.105263157894736
sg4
I12
sg5
F0.071428571428571425
sg6
I1341
sg7
F5.6344537815126055
sg8
I19
sg9
F0.050420168067226892
sg10
I268
sg11
F0.052631578947368418
sg12
I1
sg13
F95.785714285714292
sg14
F19.142857142857142
sg15
I238
sg16
F0.8571428571428571
sg17
F257.89999999999998
sg18
I14
sg19
I28
sg20
I17463
sg21
F18.421428571428571
sg22
VAdrian Peterson
p99
sa(dp100
g3
F3.5
sg4
I4
sg5
F0.066666666666666666
sg6
I632
sg7
F3.2746113989637307
sg8
I8
sg9
F0.02072538860103627
sg10
I28
sg11
F0.125
sg12
I1
sg13
F42.133333333333333
sg14
F1.8666666666666667
sg15
I193
sg16
F0.26666666666666666
sg17
F104
sg18
I15
sg19
I12
sg20
I17547
sg21
F6.9333333333333336
sg22
VLawrence Phillips
p101
sa(dp102
g3
F6.875
sg4
I1
sg5
F0
sg6
I734
sg7
F4.9931972789115644
sg8
I8
sg9
F0.0068027210884353739
sg10
I55
sg11
F0
sg12
I0
sg13
F36.700000000000003
sg14
F2.75
sg15
I147
sg16
F0.050000000000000003
sg17
F92.900000000000006
sg18
I20
sg19
I12
sg20
I17587
sg21
F4.6450000000000005
sg22
VBernard Pierce
p103
sa(dp104
g3
F7.75
sg4
I6
sg5
F0
sg6
I579
sg7
F3.8344370860927151
sg8
I8
sg9
F0.039735099337748346
sg10
I62
sg11
F0
sg12
I0
sg13
F52.636363636363633
sg14
F5.6363636363636367
sg15
I151
sg16
F0.54545454545454541
sg17
F108.09999999999999
sg18
I11
sg19
I9
sg20
I1248
sg21
F9.8272727272727263
sg22
VMario Bates
p105
sa(dp106
g3
F8.9199999999999999
sg4
I4
sg5
F0
sg6
I684
sg7
F4.1454545454545455
sg8
I25
sg9
F0.024242424242424242
sg10
I223
sg11
F0
sg12
I0
sg13
F42.75
sg14
F13.9375
sg15
I165
sg16
F0.25
sg17
F139.69999999999999
sg18
I16
sg19
I0
sg20
I9501
sg21
F8.7312499999999993
sg22
VHerman Heard
p107
sa(dp108
g3
F11.030303030303031
sg4
I15
sg5
F0.125
sg6
I1508
sg7
F5.5238095238095237
sg8
I33
sg9
F0.054945054945054944
sg10
I364
sg11
F0.060606060606060608
sg12
I2
sg13
F94.25
sg14
F22.75
sg15
I273
sg16
F0.9375
sg17
F322.19999999999999
sg18
I16
sg19
I49
sg20
I17821
sg21
F20.137499999999999
sg22
VClinton Portis
p109
sa(dp110
g3
F8.6875
sg4
I7
sg5
F0.076923076923076927
sg6
I663
sg7
F4.1180124223602483
sg8
I32
sg9
F0.043478260869565216
sg10
I278
sg11
F0.03125
sg12
I1
sg13
F51
sg14
F21.384615384615383
sg15
I161
sg16
F0.53846153846153844
sg17
F174.09999999999999
sg18
I13
sg19
I0
sg20
I17829
sg21
F13.392307692307693
sg22
VDickie Post
p111
sa(dp112
g3
F8.1470588235294112
sg4
I7
sg5
F0.0625
sg6
I1100
sg7
F4.1984732824427482
sg8
I34
sg9
F0.026717557251908396
sg10
I277
sg11
F0.029411764705882353
sg12
I1
sg13
F68.75
sg14
F17.3125
sg15
I262
sg16
F0.4375
sg17
F219.69999999999999
sg18
I16
sg19
I0
sg20
I1452
sg21
F13.731249999999999
sg22
VGreg Bell
p113
sa(dp114
g3
F10.538461538461538
sg4
I5
sg5
F0
sg6
I490
sg7
F4.4545454545454541
sg8
I13
sg9
F0.045454545454545456
sg10
I137
sg11
F0
sg12
I0
sg13
F32.666666666666664
sg14
F9.1333333333333329
sg15
I110
sg16
F0.33333333333333331
sg17
F105.7
sg18
I15
sg19
I15
sg20
I9653
sg21
F7.0466666666666669
sg22
VDerrick Henry 
p115
sa(dp116
g3
F8.1363636363636367
sg4
I4
sg5
F0
sg6
I729
sg7
F3.4225352112676055
sg8
I22
sg9
F0.018779342723004695
sg10
I179
sg11
F0
sg12
I0
sg13
F56.07692307692308
sg14
F13.76923076923077
sg15
I213
sg16
F0.30769230769230771
sg17
F136.80000000000001
sg18
I13
sg19
I27
sg20
I9665
sg21
F10.523076923076925
sg22
VTravis Henry 
p117
sa(dp118
g3
F8
sg4
I1
sg5
F0
sg6
I436
sg7
F2.9459459459459461
sg8
I11
sg9
F0.0067567567567567571
sg10
I88
sg11
F0
sg12
I0
sg13
F39.636363636363633
sg14
F8
sg15
I148
sg16
F0.090909090909090912
sg17
F69.400000000000006
sg18
I11
sg19
I0
sg20
I1477
sg21
F6.3090909090909095
sg22
VRicky Bell
p119
sa(dp120
g3
F5.7000000000000002
sg4
I4
sg5
F0
sg6
I396
sg7
F3.7358490566037736
sg8
I10
sg9
F0.037735849056603772
sg10
I57
sg11
F0
sg12
I0
sg13
F33
sg14
F4.75
sg15
I106
sg16
F0.33333333333333331
sg17
F79.299999999999997
sg18
I12
sg19
I0
sg20
I12543
sg21
F6.6083333333333334
sg22
VDoug Kotar
p121
sa(dp122
g3
F7.7931034482758621
sg4
I2
sg5
F0.076923076923076927
sg6
I682
sg7
F3.9651162790697674
sg8
I29
sg9
F0.011627906976744186
sg10
I226
sg11
F0.034482758620689655
sg12
I1
sg13
F52.46153846153846
sg14
F17.384615384615383
sg15
I172
sg16
F0.15384615384615385
sg17
F137.80000000000001
sg18
I13
sg19
I38
sg20
I1545
sg21
F10.600000000000001
sg22
VMichael Bennett
p123
sa(dp124
g3
F5.75
sg4
I8
sg5
F0
sg6
I433
sg7
F3.5491803278688523
sg8
I4
sg9
F0.065573770491803282
sg10
I23
sg11
F0
sg12
I0
sg13
F48.111111111111114
sg14
F2.5555555555555554
sg15
I122
sg16
F0.88888888888888884
sg17
F97.599999999999994
sg18
I9
sg19
I8
sg20
I9786
sg21
F10.844444444444443
sg22
VSkip Hicks
p125
sa(dp126
g3
F9.3174603174603181
sg4
I5
sg5
F0.17647058823529413
sg6
I740
sg7
F4.0659340659340657
sg8
I63
sg9
F0.027472527472527472
sg10
I587
sg11
F0.047619047619047616
sg12
I3
sg13
F43.529411764705884
sg14
F34.529411764705884
sg15
I182
sg16
F0.29411764705882354
sg17
F243.69999999999999
sg18
I17
sg19
I82
sg20
I1603
sg21
F14.335294117647058
sg22
VGiovani Bernard
p127
sa(dp128
g3
F6.8684210526315788
sg4
I11
sg5
F0.10000000000000001
sg6
I531
sg7
F2.9831460674157304
sg8
I38
sg9
F0.061797752808988762
sg10
I261
sg11
F0.052631578947368418
sg12
I2
sg13
F26.550000000000001
sg14
F13.050000000000001
sg15
I178
sg16
F0.55000000000000004
sg17
F195.19999999999999
sg18
I20
sg19
I57
sg20
I9812
sg21
F9.7599999999999998
sg22
VTim Hightower
p129
sa(dp130
g3
F11.380952380952381
sg4
I8
sg5
F0
sg6
I959
sg7
F4.5235849056603774
sg8
I21
sg9
F0.037735849056603772
sg10
I239
sg11
F0
sg12
I0
sg13
F68.5
sg14
F17.071428571428573
sg15
I212
sg16
F0.5714285714285714
sg17
F188.80000000000001
sg18
I14
sg19
I0
sg20
I9827
sg21
F13.485714285714286
sg22
VCalvin Hill
p131
sa(dp132
g3
F11.413793103448276
sg4
I5
sg5
F0.071428571428571425
sg6
I581
sg7
F4.7235772357723578
sg8
I29
sg9
F0.04065040650406504
sg10
I331
sg11
F0.034482758620689655
sg12
I1
sg13
F41.5
sg14
F23.642857142857142
sg15
I123
sg16
F0.35714285714285715
sg17
F156.19999999999999
sg18
I14
sg19
I0
sg20
I1650
sg21
F11.157142857142857
sg22
VJim Bertelsen
p133
sa(dp134
g3
F6.0588235294117645
sg4
I1
sg5
F0
sg6
I588
sg7
F4.1118881118881117
sg8
I17
sg9
F0.006993006993006993
sg10
I103
sg11
F0
sg12
I0
sg13
F34.588235294117645
sg14
F6.0588235294117645
sg15
I143
sg16
F0.058823529411764705
sg17
F92.099999999999994
sg18
I17
sg19
I23
sg20
I9845
sg21
F5.4176470588235288
sg22
VGreg Hill
p135
sa(dp136
g3
F7.9629629629629628
sg4
I10
sg5
F0
sg6
I1171
sg7
F4.9829787234042557
sg8
I27
sg9
F0.042553191489361701
sg10
I215
sg11
F0
sg12
I0
sg13
F68.882352941176464
sg14
F12.647058823529411
sg15
I235
sg16
F0.58823529411764708
sg17
F225.59999999999999
sg18
I17
sg19
I32
sg20
I9856
sg21
F13.270588235294117
sg22
VJeremy Hill
p137
sa(dp138
g3
F8.3965517241379306
sg4
I4
sg5
F0.125
sg6
I555
sg7
F3.2456140350877192
sg8
I58
sg9
F0.023391812865497075
sg10
I487
sg11
F0.034482758620689655
sg12
I2
sg13
F34.6875
sg14
F30.4375
sg15
I171
sg16
F0.25
sg17
F198.19999999999999
sg18
I16
sg19
I80
sg20
I1665
sg21
F12.387499999999999
sg22
VJahvid Best
p139
sa(dp140
g3
F9.384615384615385
sg4
I7
sg5
F0
sg6
I1429
sg7
F4.8605442176870746
sg8
I26
sg9
F0.023809523809523808
sg10
I244
sg11
F0
sg12
I0
sg13
F89.3125
sg14
F15.25
sg15
I294
sg16
F0.4375
sg17
F235.30000000000001
sg18
I16
sg19
I34
sg20
I1679
sg21
F14.706250000000001
sg22
VJerome Bettis
p141
sa(dp142
g3
F6.2941176470588234
sg4
I5
sg5
F0
sg6
I425
sg7
F3.5123966942148761
sg8
I17
sg9
F0.041322314049586778
sg10
I107
sg11
F0
sg12
I0
sg13
F26.5625
sg14
F6.6875
sg15
I121
sg16
F0.3125
sg17
F100.2
sg18
I16
sg19
I0
sg20
I9904
sg21
F6.2625000000000002
sg22
VDalton Hilliard
p143
sa(dp144
g3
F3.0666666666666669
sg4
I5
sg5
F0.066666666666666666
sg6
I566
sg7
F3.7733333333333334
sg8
I15
sg9
F0.033333333333333333
sg10
I46
sg11
F0.066666666666666666
sg12
I1
sg13
F37.733333333333334
sg14
F3.0666666666666669
sg15
I150
sg16
F0.33333333333333331
sg17
F112.2
sg18
I15
sg19
I19
sg20
I18152
sg21
F7.4800000000000004
sg22
VBobby Rainey
p145
sa(dp146
g3
F5.9333333333333336
sg4
I0
sg5
F0
sg6
I561
sg7
F4.5609756097560972
sg8
I15
sg9
F0
sg10
I89
sg11
F0
sg12
I0
sg13
F70.125
sg14
F11.125
sg15
I123
sg16
F0
sg17
F80
sg18
I8
sg19
I0
sg20
I10021
sg21
F10
sg22
VMike Hogan 
p147
sa(dp148
g3
F8.4444444444444446
sg4
I4
sg5
F0.076923076923076927
sg6
I830
sg7
F5.6462585034013602
sg8
I9
sg9
F0.027210884353741496
sg10
I76
sg11
F0.1111111111111111
sg12
I1
sg13
F63.846153846153847
sg14
F5.8461538461538458
sg15
I147
sg16
F0.30769230769230771
sg17
F129.59999999999999
sg18
I13
sg19
I11
sg20
I18248
sg21
F9.9692307692307693
sg22
VThomas Rawls
p149
sa(dp150
g3
F2.7999999999999998
sg4
I6
sg5
F0
sg6
I1007
sg7
F5.0099502487562191
sg8
I5
sg9
F0.029850746268656716
sg10
I14
sg11
F0
sg12
I0
sg13
F77.461538461538467
sg14
F1.0769230769230769
sg15
I201
sg16
F0.46153846153846156
sg17
F143.09999999999999
sg18
I13
sg19
I7
sg20
I1890
sg21
F11.007692307692308
sg22
VLeGarrette Blount
p151
sa(dp152
g3
F7.5333333333333332
sg4
I2
sg5
F0.0625
sg6
I528
sg7
F3.1242603550295858
sg8
I15
sg9
F0.011834319526627219
sg10
I113
sg11
F0.066666666666666666
sg12
I1
sg13
F33
sg14
F7.0625
sg15
I169
sg16
F0.125
sg17
F97.099999999999994
sg18
I16
sg19
I18
sg20
I1894
sg21
F6.0687499999999996
sg22
VAlfred Blue
p153
sa(dp154
g3
F8.9166666666666661
sg4
I5
sg5
F0
sg6
I799
sg7
F4.1832460732984291
sg8
I24
sg9
F0.026178010471204188
sg10
I214
sg11
F0
sg12
I0
sg13
F44.388888888888886
sg14
F11.888888888888889
sg15
I191
sg16
F0.27777777777777779
sg17
F155.30000000000001
sg18
I18
sg19
I34
sg20
I10118
sg21
F8.6277777777777782
sg22
VDarick Holmes
p155
sa(dp156
g3
F8.7540983606557372
sg4
I0
sg5
F0.125
sg6
I379
sg7
F3.6442307692307692
sg8
I61
sg9
F0
sg10
I534
sg11
F0.032786885245901641
sg12
I2
sg13
F23.6875
sg14
F33.375
sg15
I104
sg16
F0
sg17
F164.30000000000001
sg18
I16
sg19
I74
sg20
I11246
sg21
F10.268750000000001
sg22
VDuke Johnson
p157
sa(dp158
g3
F9.6500000000000004
sg4
I7
sg5
F0
sg6
I912
sg7
F4.8770053475935828
sg8
I20
sg9
F0.037433155080213901
sg10
I193
sg11
F0
sg12
I0
sg13
F70.15384615384616
sg14
F14.846153846153847
sg15
I187
sg16
F0.53846153846153844
sg17
F172.5
sg18
I13
sg19
I0
sg20
I10136
sg21
F13.26923076923077
sg22
VRobert Holmes
p159
sa(dp160
g3
F7.9047619047619051
sg4
I5
sg5
F0.071428571428571425
sg6
I577
sg7
F4.1811594202898554
sg8
I21
sg9
F0.036231884057971016
sg10
I166
sg11
F0.047619047619047616
sg12
I1
sg13
F41.214285714285715
sg14
F11.857142857142858
sg15
I138
sg16
F0.35714285714285715
sg17
F131.30000000000001
sg18
I14
sg19
I0
sg20
I24906
sg21
F9.3785714285714299
sg22
VRickey Young
p161
sa(dp162
g3
F10.416666666666666
sg4
I2
sg5
F0
sg6
I505
sg7
F4.0079365079365079
sg8
I12
sg9
F0.015873015873015872
sg10
I125
sg11
F0
sg12
I0
sg13
F36.071428571428569
sg14
F8.9285714285714288
sg15
I126
sg16
F0.14285714285714285
sg17
F87
sg18
I14
sg19
I0
sg20
I18367
sg21
F6.2142857142857144
sg22
VTony Reed
p163
sa(dp164
g3
F16.625
sg4
I5
sg5
F0
sg6
I455
sg7
F4.6907216494845363
sg8
I8
sg9
F0.051546391752577317
sg10
I133
sg11
F0
sg12
I0
sg13
F37.916666666666664
sg14
F11.083333333333334
sg15
I97
sg16
F0.41666666666666669
sg17
F96.799999999999997
sg18
I12
sg19
I0
sg20
I2020
sg21
F8.0666666666666664
sg22
VEmerson Boozer
p165
sa(dp166
g3
F8.0199999999999996
sg4
I2
sg5
F0.14285714285714285
sg6
I401
sg7
F2.5220125786163523
sg8
I50
sg9
F0.012578616352201259
sg10
I401
sg11
F0.040000000000000001
sg12
I2
sg13
F28.642857142857142
sg14
F28.642857142857142
sg15
I159
sg16
F0.14285714285714285
sg17
F154.19999999999999
sg18
I14
sg19
I0
sg20
I2076
sg21
F11.014285714285714
sg22
VLee Bouggess
p167
sa(dp168
g3
F10.275862068965518
sg4
I6
sg5
F0.066666666666666666
sg6
I1313
sg7
F5.2103174603174605
sg8
I29
sg9
F0.023809523809523808
sg10
I298
sg11
F0.034482758620689655
sg12
I1
sg13
F87.533333333333331
sg14
F19.866666666666667
sg15
I252
sg16
F0.40000000000000002
sg17
F232.09999999999999
sg18
I15
sg19
I50
sg20
I10295
sg21
F15.473333333333333
sg22
VJordan Howard
p169
sa(dp170
g3
F8.8181818181818183
sg4
I1
sg5
F0
sg6
I452
sg7
F3.9304347826086956
sg8
I11
sg9
F0.0086956521739130436
sg10
I97
sg11
F0
sg12
I0
sg13
F30.133333333333333
sg14
F6.4666666666666668
sg15
I115
sg16
F0.066666666666666666
sg17
F71.900000000000006
sg18
I15
sg19
I0
sg20
I10311
sg21
F4.7933333333333339
sg22
VWilliam Howard
p171
sa(dp172
g3
F5.4090909090909092
sg4
I7
sg5
F0
sg6
I1011
sg7
F3.5598591549295775
sg8
I22
sg9
F0.02464788732394366
sg10
I119
sg11
F0
sg12
I0
sg13
F63.1875
sg14
F7.4375
sg15
I284
sg16
F0.4375
sg17
F177
sg18
I16
sg19
I30
sg20
I18535
sg21
F11.0625
sg22
VErrict Rhett
p173
sa(dp174
g3
F8.569230769230769
sg4
I3
sg5
F0.1875
sg6
I377
sg7
F3.9270833333333335
sg8
I65
sg9
F0.03125
sg10
I557
sg11
F0.046153846153846156
sg12
I3
sg13
F23.5625
sg14
F34.8125
sg15
I96
sg16
F0.1875
sg17
F194.40000000000001
sg18
I16
sg19
I81
sg20
I362
sg21
F12.15
sg22
VMike Alstott
p175
sa(dp176
g3
F8.7777777777777786
sg4
I0
sg5
F0
sg6
I456
sg7
F4.2222222222222223
sg8
I36
sg9
F0
sg10
I316
sg11
F0
sg12
I0
sg13
F30.399999999999999
sg14
F21.066666666666666
sg15
I108
sg16
F0
sg17
F113.2
sg18
I15
sg19
I47
sg20
I18567
sg21
F7.5466666666666669
sg22
VRay Rice
p177
sa(dp178
g3
F7.1960784313725492
sg4
I11
sg5
F0.066666666666666666
sg6
I950
sg7
F3.5580524344569286
sg8
I51
sg9
F0.041198501872659173
sg10
I367
sg11
F0.019607843137254902
sg12
I1
sg13
F63.333333333333336
sg14
F24.466666666666665
sg15
I267
sg16
F0.73333333333333328
sg17
F254.69999999999999
sg18
I15
sg19
I70
sg20
I18630
sg21
F16.98
sg22
VTrent Richardson 
p179
sa(dp180
g3
F6.416666666666667
sg4
I1
sg5
F0.14285714285714285
sg6
I769
sg7
F4.2722222222222221
sg8
I36
sg9
F0.0055555555555555558
sg10
I231
sg11
F0.055555555555555552
sg12
I2
sg13
F54.928571428571431
sg14
F16.5
sg15
I180
sg16
F0.071428571428571425
sg17
F154
sg18
I14
sg19
I0
sg20
I18676
sg21
F11
sg22
VJohn Riggins
p181
sa(dp182
g3
F8.0399999999999991
sg4
I5
sg5
F0
sg6
I337
sg7
F3.8735632183908044
sg8
I25
sg9
F0.057471264367816091
sg10
I201
sg11
F0
sg12
I0
sg13
F33.700000000000003
sg14
F20.100000000000001
sg15
I87
sg16
F0.5
sg17
F108.8
sg18
I10
sg19
I0
sg20
I18679
sg21
F10.879999999999999
sg22
VGerald Riggs
p183
sa(dp184
g3
F4.1818181818181817
sg4
I5
sg5
F0
sg6
I474
sg7
F3.8852459016393444
sg8
I11
sg9
F0.040983606557377046
sg10
I46
sg11
F0
sg12
I0
sg13
F47.399999999999999
sg14
F4.5999999999999996
sg15
I122
sg16
F0.5
sg17
F93
sg18
I10
sg19
I13
sg20
I10635
sg21
F9.3000000000000007
sg22
VMark Ingram
p185
sa(dp186
g3
F7
sg4
I4
sg5
F0.071428571428571425
sg6
I1105
sg7
F5.1157407407407405
sg8
I14
sg9
F0.018518518518518517
sg10
I98
sg11
F0.071428571428571425
sg12
I1
sg13
F78.928571428571431
sg14
F7
sg15
I216
sg16
F0.2857142857142857
sg17
F164.30000000000001
sg18
I14
sg19
I0
sg20
I2456
sg21
F11.735714285714286
sg22
VJohn Brockington 
p187
sa(dp188
g3
F7.0192307692307692
sg4
I3
sg5
F0.3125
sg6
I567
sg7
F4.8050847457627119
sg8
I52
sg9
F0.025423728813559324
sg10
I365
sg11
F0.096153846153846159
sg12
I5
sg13
F35.4375
sg14
F22.8125
sg15
I118
sg16
F0.1875
sg17
F193.19999999999999
sg18
I16
sg19
I0
sg20
I2497
sg21
F12.074999999999999
sg22
VJames Brooks
p189
sa(dp190
g3
F8.8571428571428577
sg4
I3
sg5
F0
sg6
I1063
sg7
F4.7668161434977581
sg8
I21
sg9
F0.013452914798206279
sg10
I186
sg11
F0
sg12
I0
sg13
F66.4375
sg14
F11.625
sg15
I223
sg16
F0.1875
sg17
F163.90000000000001
sg18
I16
sg19
I35
sg20
I2508
sg21
F10.24375
sg22
VReggie Brooks
p191
sa(dp192
g3
F17
sg4
I5
sg5
F0
sg6
I716
sg7
F5.226277372262774
sg8
I1
sg9
F0.036496350364963501
sg10
I17
sg11
F0
sg12
I0
sg13
F59.666666666666664
sg14
F1.4166666666666667
sg15
I137
sg16
F0.41666666666666669
sg17
F104.3
sg18
I12
sg19
I1
sg20
I10701
sg21
F8.6916666666666664
sg22
VChris Ivory
p193
sa(dp194
g3
F5.333333333333333
sg4
I8
sg5
F0.071428571428571425
sg6
I1023
sg7
F4.2983193277310923
sg8
I24
sg9
F0.033613445378151259
sg10
I128
sg11
F0.041666666666666664
sg12
I1
sg13
F73.071428571428569
sg14
F9.1428571428571423
sg15
I238
sg16
F0.5714285714285714
sg17
F193.09999999999999
sg18
I14
sg19
I0
sg20
I18900
sg21
F13.792857142857143
sg22
VPaul Robinson
p195
sa(dp196
g3
F8.0952380952380949
sg4
I2
sg5
F0.076923076923076927
sg6
I705
sg7
F3.9166666666666665
sg8
I21
sg9
F0.011111111111111112
sg10
I170
sg11
F0.047619047619047616
sg12
I1
sg13
F54.230769230769234
sg14
F13.076923076923077
sg15
I180
sg16
F0.15384615384615385
sg17
F126.5
sg18
I13
sg19
I32
sg20
I2601
sg21
F9.7307692307692299
sg22
VDerek Brown
p197
sa(dp198
g3
F13.928571428571429
sg4
I3
sg5
F0
sg6
I327
sg7
F3.478723404255319
sg8
I14
sg9
F0.031914893617021274
sg10
I195
sg11
F0
sg12
I0
sg13
F23.357142857142858
sg14
F13.928571428571429
sg15
I94
sg16
F0.21428571428571427
sg17
F84.200000000000003
sg18
I14
sg19
I18
sg20
I2605
sg21
F6.0142857142857142
sg22
VDonald Brown
p199
sa(dp200
g3
F7.875
sg4
I13
sg5
F0
sg6
I1674
sg7
F4.4285714285714288
sg8
I16
sg9
F0.03439153439153439
sg10
I126
sg11
F0
sg12
I0
sg13
F104.625
sg14
F7.875
sg15
I378
sg16
F0.8125
sg17
F274
sg18
I16
sg19
I0
sg20
I18995
sg21
F17.125
sg22
VGeorge Rogers
p201
sa(dp202
g3
F10.142857142857142
sg4
I5
sg5
F0
sg6
I695
sg7
F3.6197916666666665
sg8
I21
sg9
F0.026041666666666668
sg10
I213
sg11
F0
sg12
I0
sg13
F49.642857142857146
sg14
F15.214285714285714
sg15
I192
sg16
F0.35714285714285715
sg17
F141.80000000000001
sg18
I14
sg19
I0
sg20
I19029
sg21
F10.12857142857143
sg22
VJohnny Roland
p203
sa(dp204
g3
F8.7272727272727266
sg4
I4
sg5
F0
sg6
I741
sg7
F4.8431372549019605
sg8
I22
sg9
F0.026143790849673203
sg10
I192
sg11
F0
sg12
I0
sg13
F46.3125
sg14
F12
sg15
I153
sg16
F0.25
sg17
F139.30000000000001
sg18
I16
sg19
I29
sg20
I10839
sg21
F8.7062500000000007
sg22
VSteven Jackson
p205
sa(dp206
g3
F8.882352941176471
sg4
I4
sg5
F0
sg6
I888
sg7
F4.3960396039603964
sg8
I34
sg9
F0.019801980198019802
sg10
I302
sg11
F0
sg12
I0
sg13
F63.428571428571431
sg14
F21.571428571428573
sg15
I202
sg16
F0.2857142857142857
sg17
F177
sg18
I14
sg19
I0
sg20
I2667
sg21
F12.642857142857142
sg22
VLarry Brown
p207
sa(dp208
g3
F8.2592592592592595
sg4
I7
sg5
F0.052631578947368418
sg6
I1320
sg7
F3.9759036144578315
sg8
I27
sg9
F0.021084337349397589
sg10
I223
sg11
F0.037037037037037035
sg12
I1
sg13
F69.473684210526315
sg14
F11.736842105263158
sg15
I332
sg16
F0.36842105263157893
sg17
F229.30000000000001
sg18
I19
sg19
I4
sg20
I10455
sg21
F12.06842105263158
sg22
VBobby Humphrey
p209
sa(dp210
g3
F9.4285714285714288
sg4
I13
sg5
F0.23529411764705882
sg6
I1609
sg7
F4.1362467866323911
sg8
I63
sg9
F0.033419023136246784
sg10
I594
sg11
F0.063492063492063489
sg12
I4
sg13
F94.647058823529406
sg14
F34.941176470588232
sg15
I389
sg16
F0.76470588235294112
sg17
F385.30000000000001
sg18
I17
sg19
I86
sg20
I10902
sg21
F22.664705882352941
sg22
VEdgerrin James
p211
sa(dp212
g3
F6.354838709677419
sg4
I1
sg5
F0
sg6
I551
sg7
F4.2384615384615385
sg8
I31
sg9
F0.0076923076923076927
sg10
I197
sg11
F0
sg12
I0
sg13
F39.357142857142854
sg14
F14.071428571428571
sg15
I130
sg16
F0.071428571428571425
sg17
F111.8
sg18
I14
sg19
I0
sg20
I2739
sg21
F7.9857142857142858
sg22
VTed Brown
p213
sa(dp214
g3
F10.666666666666666
sg4
I8
sg5
F0
sg6
I462
sg7
F3.4736842105263159
sg8
I9
sg9
F0.060150375939849621
sg10
I96
sg11
F0
sg12
I0
sg13
F33
sg14
F6.8571428571428568
sg15
I133
sg16
F0.5714285714285714
sg17
F112.8
sg18
I14
sg19
I0
sg20
I19191
sg21
F8.0571428571428569
sg22
VMike Rozier
p215
sa(dp216
g3
F10.232142857142858
sg4
I4
sg5
F0.30769230769230771
sg6
I346
sg7
F3.9770114942528734
sg8
I56
sg9
F0.045977011494252873
sg10
I573
sg11
F0.071428571428571425
sg12
I4
sg13
F26.615384615384617
sg14
F44.07692307692308
sg15
I87
sg16
F0.30769230769230771
sg17
F195.90000000000001
sg18
I13
sg19
I0
sg20
I2855
sg21
F15.069230769230769
sg22
VKelvin Bryant
p217
sa(dp218
g3
F4.5
sg4
I4
sg5
F0
sg6
I959
sg7
F3.6052631578947367
sg8
I18
sg9
F0.015037593984962405
sg10
I81
sg11
F0
sg12
I0
sg13
F59.9375
sg14
F5.0625
sg15
I266
sg16
F0.25
sg17
F146
sg18
I16
sg19
I0
sg20
I19284
sg21
F9.125
sg22
VLeonard Russell
p219
sa(dp220
g3
F10.666666666666666
sg4
I5
sg5
F0
sg6
I641
sg7
F3.142156862745098
sg8
I12
sg9
F0.024509803921568627
sg10
I128
sg11
F0
sg12
I0
sg13
F42.733333333333334
sg14
F8.5333333333333332
sg15
I204
sg16
F0.33333333333333331
sg17
F118.90000000000001
sg18
I15
sg19
I0
sg20
I2937
sg21
F7.9266666666666667
sg22
VNorm Bulaich
p221
sa(dp222
g3
F10.67741935483871
sg4
I1
sg5
F0
sg6
I363
sg7
F3.2123893805309733
sg8
I31
sg9
F0.0088495575221238937
sg10
I331
sg11
F0
sg12
I0
sg13
F25.928571428571427
sg14
F23.642857142857142
sg15
I113
sg16
F0.071428571428571425
sg17
F106.40000000000001
sg18
I14
sg19
I0
sg20
I2941
sg21
F7.6000000000000005
sg22
VRonnie Bull
p223
sa(dp224
g3
F6
sg4
I4
sg5
F0.071428571428571425
sg6
I646
sg7
F4.1948051948051948
sg8
I15
sg9
F0.025974025974025976
sg10
I90
sg11
F0.066666666666666666
sg12
I1
sg13
F46.142857142857146
sg14
F6.4285714285714288
sg15
I154
sg16
F0.2857142857142857
sg17
F118.59999999999999
sg18
I14
sg19
I0
sg20
I11136
sg21
F8.4714285714285715
sg22
VBilly Joe
p225
sa(dp226
g3
F8
sg4
I10
sg5
F0
sg6
I1074
sg7
F3.6283783783783785
sg8
I7
sg9
F0.033783783783783786
sg10
I56
sg11
F0
sg12
I0
sg13
F67.125
sg14
F3.5
sg15
I296
sg16
F0.625
sg17
F180
sg18
I16
sg19
I13
sg20
I19376
sg21
F11.25
sg22
VRashaan Salaam 
p227
sa(dp228
g3
F6.5454545454545459
sg4
I10
sg5
F0.0625
sg6
I1300
sg7
F4.9618320610687023
sg8
I44
sg9
F0.038167938931297711
sg10
I288
sg11
F0.022727272727272728
sg12
I1
sg13
F81.25
sg14
F18
sg15
I262
sg16
F0.625
sg17
F268.80000000000001
sg18
I16
sg19
I63
sg20
I11208
sg21
F16.800000000000001
sg22
VChris Johnson 
p229
sa(dp230
g3
F12.272727272727273
sg4
I10
sg5
F0
sg6
I478
sg7
F3.8548387096774195
sg8
I11
sg9
F0.080645161290322578
sg10
I135
sg11
F0
sg12
I0
sg13
F29.875
sg14
F8.4375
sg15
I124
sg16
F0.625
sg17
F132.30000000000001
sg18
I16
sg19
I0
sg20
I20986
sg21
F8.2687500000000007
sg22
VTim Spencer
p231
sa(dp232
g3
F11.137254901960784
sg4
I9
sg5
F0.22222222222222221
sg6
I676
sg7
F4.3612903225806452
sg8
I51
sg9
F0.058064516129032261
sg10
I568
sg11
F0.078431372549019607
sg12
I4
sg13
F37.555555555555557
sg14
F31.555555555555557
sg15
I155
sg16
F0.5
sg17
F253.40000000000001
sg18
I18
sg19
I75
sg20
I11230
sg21
F14.077777777777778
sg22
VDavid Johnson
p233
sa(dp234
g3
F11.75
sg4
I14
sg5
F0
sg6
I1470
sg7
F5.25
sg8
I24
sg9
F0.050000000000000003
sg10
I282
sg11
F0
sg12
I0
sg13
F98
sg14
F18.800000000000001
sg15
I280
sg16
F0.93333333333333335
sg17
F283.19999999999999
sg18
I15
sg19
I0
sg20
I19437
sg21
F18.879999999999999
sg22
VBarry Sanders 
p235
sa(dp236
g3
F8.526315789473685
sg4
I3
sg5
F0
sg6
I421
sg7
F4.4315789473684211
sg8
I19
sg9
F0.031578947368421054
sg10
I162
sg11
F0
sg12
I0
sg13
F28.066666666666666
sg14
F10.800000000000001
sg15
I95
sg16
F0.20000000000000001
sg17
F95.299999999999997
sg18
I15
sg19
I30
sg20
I3113
sg21
F6.3533333333333335
sg22
VMichael Bush
p237
sa(dp238
g3
F9.1428571428571423
sg4
I7
sg5
F0.16666666666666666
sg6
I636
sg7
F3.7192982456140351
sg8
I98
sg9
F0.040935672514619881
sg10
I896
sg11
F0.030612244897959183
sg12
I3
sg13
F35.333333333333336
sg14
F49.777777777777779
sg15
I171
sg16
F0.3888888888888889
sg17
F311.19999999999999
sg18
I18
sg19
I136
sg20
I3116
sg21
F17.288888888888888
sg22
VReggie Bush
p239
sa(dp240
g3
F9.6400000000000006
sg4
I5
sg5
F0
sg6
I926
sg7
F3.9572649572649574
sg8
I25
sg9
F0.021367521367521368
sg10
I241
sg11
F0
sg12
I0
sg13
F66.142857142857139
sg14
F17.214285714285715
sg15
I234
sg16
F0.35714285714285715
sg17
F171.69999999999999
sg18
I14
sg19
I0
sg20
I11314
sg21
F12.264285714285714
sg22
VJohnny Johnson
p241
sa(dp242
g3
F7.9230769230769234
sg4
I3
sg5
F0.13333333333333333
sg6
I1023
sg7
F4.2803347280334725
sg8
I39
sg9
F0.012552301255230125
sg10
I309
sg11
F0.05128205128205128
sg12
I2
sg13
F68.200000000000003
sg14
F20.600000000000001
sg15
I239
sg16
F0.20000000000000001
sg17
F202.19999999999999
sg18
I15
sg19
I0
sg20
I523
sg21
F13.479999999999999
sg22
VWilliam Andrews
p243
sa(dp244
g3
F3
sg4
I9
sg5
F0
sg6
I683
sg7
F4.0176470588235293
sg8
I7
sg9
F0.052941176470588235
sg10
I21
sg11
F0
sg12
I0
sg13
F45.533333333333331
sg14
F1.3999999999999999
sg15
I170
sg16
F0.59999999999999998
sg17
F131.40000000000001
sg18
I15
sg19
I0
sg20
I3182
sg21
F8.7599999999999998
sg22
VMarion Butts
p245
sa(dp246
g3
F17.482758620689655
sg4
I14
sg5
F0.42857142857142855
sg6
I867
sg7
F5.2228915662650603
sg8
I29
sg9
F0.084337349397590355
sg10
I507
sg11
F0.20689655172413793
sg12
I6
sg13
F61.928571428571431
sg14
F36.214285714285715
sg15
I166
sg16
F1
sg17
F286.39999999999998
sg18
I14
sg19
I0
sg20
I19574
sg21
F20.457142857142856
sg22
VGale Sayers
p247
sa(dp248
g3
F9.8000000000000007
sg4
I4
sg5
F0
sg6
I585
sg7
F3.8235294117647061
sg8
I5
sg9
F0.026143790849673203
sg10
I49
sg11
F0
sg12
I0
sg13
F41.785714285714285
sg14
F3.5
sg15
I153
sg16
F0.2857142857142857
sg17
F92.400000000000006
sg18
I14
sg19
I0
sg20
I11385
sg21
F6.6000000000000005
sg22
VPete Johnson
p249
sa(dp250
g3
F6.833333333333333
sg4
I7
sg5
F0
sg6
I467
sg7
F3.3357142857142859
sg8
I24
sg9
F0.050000000000000003
sg10
I164
sg11
F0
sg12
I0
sg13
F29.1875
sg14
F10.25
sg15
I140
sg16
F0.4375
sg17
F129.09999999999999
sg18
I16
sg19
I0
sg20
I11405
sg21
F8.0687499999999996
sg22
VRon Johnson
p251
sa(dp252
g3
F5
sg4
I15
sg5
F0
sg6
I1714
sg7
F4.546419098143236
sg8
I15
sg9
F0.039787798408488062
sg10
I75
sg11
F0
sg12
I0
sg13
F95.222222222222229
sg14
F4.166666666666667
sg15
I377
sg16
F0.83333333333333337
sg17
F283.89999999999998
sg18
I18
sg19
I0
sg20
I3324
sg21
F15.77222222222222
sg22
VEarl Campbell
p253
sa(dp254
g3
F7.4210526315789478
sg4
I4
sg5
F0.15384615384615385
sg6
I526
sg7
F4.5344827586206895
sg8
I19
sg9
F0.034482758620689655
sg10
I141
sg11
F0.10526315789473684
sg12
I2
sg13
F40.46153846153846
sg14
F10.846153846153847
sg15
I116
sg16
F0.30769230769230771
sg17
F121.7
sg18
I13
sg19
I0
sg20
I3355
sg21
F9.361538461538462
sg22
VWoody Campbell
p255
sa(dp256
g3
F6.4117647058823533
sg4
I7
sg5
F0
sg6
I819
sg7
F4.1573604060913709
sg8
I17
sg9
F0.03553299492385787
sg10
I109
sg11
F0
sg12
I0
sg13
F102.375
sg14
F13.625
sg15
I197
sg16
F0.875
sg17
F151.80000000000001
sg18
I8
sg19
I26
sg20
I11635
sg21
F18.975000000000001
sg22
VJulius Jones
p257
sa(dp258
g3
F6.4285714285714288
sg4
I5
sg5
F0.066666666666666666
sg6
I1133
sg7
F4.7012448132780085
sg8
I28
sg9
F0.020746887966804978
sg10
I180
sg11
F0.035714285714285712
sg12
I1
sg13
F75.533333333333331
sg14
F12
sg15
I241
sg16
F0.33333333333333331
sg17
F195.30000000000001
sg18
I15
sg19
I41
sg20
I11643
sg21
F13.020000000000001
sg22
VKevin Jones
p259
sa(dp260
g3
F16
sg4
I3
sg5
F0.076923076923076927
sg6
I490
sg7
F3.4027777777777777
sg8
I19
sg9
F0.020833333333333332
sg10
I304
sg11
F0.052631578947368418
sg12
I1
sg13
F37.692307692307693
sg14
F23.384615384615383
sg15
I144
sg16
F0.23076923076923078
sg17
F122.40000000000001
sg18
I13
sg19
I25
sg20
I11664
sg21
F9.4153846153846157
sg22
VMatt Jones
p261
sa(dp262
g3
F6.5
sg4
I2
sg5
F0
sg6
I373
sg7
F3.3303571428571428
sg8
I32
sg9
F0.017857142857142856
sg10
I208
sg11
F0
sg12
I0
sg13
F26.642857142857142
sg14
F14.857142857142858
sg15
I112
sg16
F0.14285714285714285
sg17
F102.09999999999999
sg18
I14
sg19
I46
sg20
I11713
sg21
F7.2928571428571427
sg22
VThomas Jones
p263
sa(dp264
g3
F9.4782608695652169
sg4
I13
sg5
F0.125
sg6
I941
sg7
F5.668674698795181
sg8
I46
sg9
F0.078313253012048195
sg10
I436
sg11
F0.043478260869565216
sg12
I2
sg13
F58.8125
sg14
F27.25
sg15
I166
sg16
F0.8125
sg17
F273.69999999999999
sg18
I16
sg19
I62
sg20
I11732
sg21
F17.106249999999999
sg22
VMaurice Jones-Drew
p265
sa(dp266
g3
F8.6799999999999997
sg4
I1
sg5
F0
sg6
I460
sg7
F4.0350877192982457
sg8
I25
sg9
F0.008771929824561403
sg10
I217
sg11
F0
sg12
I0
sg13
F25.555555555555557
sg14
F12.055555555555555
sg15
I114
sg16
F0.055555555555555552
sg17
F98.700000000000003
sg18
I18
sg19
I0
sg20
I3566
sg21
F5.4833333333333334
sg22
VDexter Carter
p267
sa(dp268
g3
F7.6818181818181817
sg4
I8
sg5
F0.0625
sg6
I264
sg7
F2.901098901098901
sg8
I22
sg9
F0.087912087912087919
sg10
I169
sg11
F0.045454545454545456
sg12
I1
sg13
F16.5
sg14
F10.5625
sg15
I91
sg16
F0.5
sg17
F119.3
sg18
I16
sg19
I35
sg20
I3582
sg21
F7.4562499999999998
sg22
VKi-Jana Carter
p269
sa(dp270
g3
F6.8888888888888893
sg4
I1
sg5
F0
sg6
I490
sg7
F4.5370370370370372
sg8
I9
sg9
F0.0092592592592592587
sg10
I62
sg11
F0
sg12
I0
sg13
F30.625
sg14
F3.875
sg15
I108
sg16
F0.0625
sg17
F70.200000000000003
sg18
I16
sg19
I16
sg20
I11953
sg21
F4.3875000000000002
sg22
VNapoleon Kaufman 
p271
sa(dp272
g3
F7.7659574468085104
sg4
I8
sg5
F0
sg6
I1028
sg7
F3.9386973180076628
sg8
I47
sg9
F0.030651340996168581
sg10
I365
sg11
F0
sg12
I0
sg13
F68.533333333333331
sg14
F24.333333333333332
sg15
I261
sg16
F0.53333333333333333
sg17
F234.30000000000001
sg18
I15
sg19
I0
sg20
I3943
sg21
F15.620000000000001
sg22
VBoobie Clark
p273
sa(dp274
g3
F11.433333333333334
sg4
I2
sg5
F0.23076923076923078
sg6
I697
sg7
F3.8508287292817678
sg8
I30
sg9
F0.011049723756906077
sg10
I343
sg11
F0.10000000000000001
sg12
I3
sg13
F53.615384615384613
sg14
F26.384615384615383
sg15
I181
sg16
F0.15384615384615385
sg17
F164
sg18
I13
sg19
I0
sg20
I20332
sg21
F12.615384615384615
sg22
VO.J. Simpson
p275
sa(dp276
g3
F4.6086956521739131
sg4
I7
sg5
F0
sg6
I661
sg7
F3.8430232558139537
sg8
I23
sg9
F0.040697674418604654
sg10
I106
sg11
F0
sg12
I0
sg13
F44.06666666666667
sg14
F7.0666666666666664
sg15
I172
sg16
F0.46666666666666667
sg17
F141.69999999999999
sg18
I15
sg19
I0
sg20
I23869
sg21
F9.4466666666666654
sg22
VArthur Whittington
p277
sa(dp278
g3
F12.176470588235293
sg4
I13
sg5
F0.1875
sg6
I1303
sg7
F4.1629392971246002
sg8
I51
sg9
F0.041533546325878593
sg10
I621
sg11
F0.058823529411764705
sg12
I3
sg13
F81.4375
sg14
F38.8125
sg15
I313
sg16
F0.8125
sg17
F339.39999999999998
sg18
I16
sg19
I0
sg20
I20337
sg21
F21.212499999999999
sg22
VBilly Sims
p279
sa(dp280
g3
F14.666666666666666
sg4
I5
sg5
F0.21428571428571427
sg6
I369
sg7
F3.7272727272727271
sg8
I12
sg9
F0.050505050505050504
sg10
I176
sg11
F0.25
sg12
I3
sg13
F26.357142857142858
sg14
F12.571428571428571
sg15
I99
sg16
F0.35714285714285715
sg17
F114.5
sg18
I14
sg19
I0
sg20
I20340
sg21
F8.1785714285714288
sg22
VDavid Sims
p281
sa(dp282
g3
F9.5909090909090917
sg4
I4
sg5
F0
sg6
I621
sg7
F3.7636363636363637
sg8
I44
sg9
F0.024242424242424242
sg10
I422
sg11
F0
sg12
I0
sg13
F44.357142857142854
sg14
F30.142857142857142
sg15
I165
sg16
F0.2857142857142857
sg17
F172.30000000000001
sg18
I14
sg19
I0
sg20
I12204
sg21
F12.307142857142859
sg22
VJim Kiick 
p283
sa(dp284
g3
F7.54
sg4
I9
sg5
F0.0625
sg6
I1282
sg7
F4.7835820895522385
sg8
I50
sg9
F0.033582089552238806
sg10
I377
sg11
F0.02
sg12
I1
sg13
F80.125
sg14
F23.5625
sg15
I268
sg16
F0.5625
sg17
F275.89999999999998
sg18
I16
sg19
I59
sg20
I20446
sg21
F17.243749999999999
sg22
VSteve Slaton
p285
sa(dp286
g3
F7.666666666666667
sg4
I2
sg5
F0
sg6
I480
sg7
F3.1788079470198674
sg8
I39
sg9
F0.013245033112582781
sg10
I299
sg11
F0
sg12
I0
sg13
F30
sg14
F18.6875
sg15
I151
sg16
F0.125
sg17
F128.90000000000001
sg18
I16
sg19
I0
sg20
I4131
sg21
F8.0562500000000004
sg22
VReggie Cobb
p287
sa(dp288
g3
F13.814814814814815
sg4
I5
sg5
F0.14285714285714285
sg6
I579
sg7
F5.1238938053097343
sg8
I27
sg9
F0.044247787610619468
sg10
I373
sg11
F0.07407407407407407
sg12
I2
sg13
F41.357142857142854
sg14
F26.642857142857142
sg15
I113
sg16
F0.35714285714285715
sg17
F164.19999999999999
sg18
I14
sg19
I0
sg20
I20557
sg21
F11.728571428571428
sg22
VCharlie Smith
p289
sa(dp290
g3
F9.5
sg4
I11
sg5
F0
sg6
I937
sg7
F3.8879668049792531
sg8
I24
sg9
F0.045643153526970952
sg10
I228
sg11
F0
sg12
I0
sg13
F58.5625
sg14
F14.25
sg15
I241
sg16
F0.6875
sg17
F206.5
sg18
I16
sg19
I0
sg20
I20608
sg21
F12.90625
sg22
VEmmitt Smith
p291
sa(dp292
g3
F7.333333333333333
sg4
I8
sg5
F0
sg6
I976
sg7
F4.1008403361344534
sg8
I39
sg9
F0.033613445378151259
sg10
I286
sg11
F0
sg12
I0
sg13
F61
sg14
F17.875
sg15
I238
sg16
F0.5
sg17
F213.19999999999999
sg18
I16
sg19
I54
sg20
I20685
sg21
F13.324999999999999
sg22
VKevin Smith
p293
sa(dp294
g3
F6.4615384615384617
sg4
I1
sg5
F0.13333333333333333
sg6
I659
sg7
F3.7231638418079096
sg8
I52
sg9
F0.0056497175141242938
sg10
I336
sg11
F0.038461538461538464
sg12
I2
sg13
F43.93333333333333
sg14
F22.399999999999999
sg15
I177
sg16
F0.066666666666666666
sg17
F169.5
sg18
I15
sg19
I0
sg20
I20692
sg21
F11.300000000000001
sg22
VLarry Smith
p295
sa(dp296
g3
F8.9230769230769234
sg4
I7
sg5
F0
sg6
I873
sg7
F4.2794117647058822
sg8
I26
sg9
F0.034313725490196081
sg10
I232
sg11
F0
sg12
I0
sg13
F54.5625
sg14
F14.5
sg15
I204
sg16
F0.4375
sg17
F178.5
sg18
I16
sg19
I0
sg20
I4334
sg21
F11.15625
sg22
VTony Collins
p297
sa(dp298
g3
F8.5999999999999996
sg4
I5
sg5
F0
sg6
I579
sg7
F5.4112149532710276
sg8
I15
sg9
F0.046728971962616821
sg10
I129
sg11
F0
sg12
I0
sg13
F38.600000000000001
sg14
F8.5999999999999996
sg15
I107
sg16
F0.33333333333333331
sg17
F115.8
sg18
I15
sg19
I20
sg20
I20729
sg21
F7.7199999999999998
sg22
VOnterrio Smith
p299
sa(dp300
g3
F11.571428571428571
sg4
I6
sg5
F0
sg6
I659
sg7
F3.2949999999999999
sg8
I7
sg9
F0.029999999999999999
sg10
I81
sg11
F0
sg12
I0
sg13
F50.692307692307693
sg14
F6.2307692307692308
sg15
I200
sg16
F0.46153846153846156
sg17
F117
sg18
I13
sg19
I0
sg20
I20771
sg21
F9
sg22
VSammie Smith
p301
sa(dp302
g3
F10.666666666666666
sg4
I4
sg5
F0.083333333333333329
sg6
I537
sg7
F4.5126050420168067
sg8
I36
sg9
F0.033613445378151259
sg10
I384
sg11
F0.027777777777777776
sg12
I1
sg13
F44.75
sg14
F32
sg15
I119
sg16
F0.33333333333333331
sg17
F158.09999999999999
sg18
I12
sg19
I0
sg20
I20778
sg21
F13.174999999999999
sg22
VSherman Smith
p303
sa(dp304
g3
F7.0178571428571432
sg4
I5
sg5
F0.071428571428571425
sg6
I948
sg7
F4.4299065420560746
sg8
I56
sg9
F0.02336448598130841
sg10
I393
sg11
F0.017857142857142856
sg12
I1
sg13
F67.714285714285708
sg14
F28.071428571428573
sg15
I214
sg16
F0.35714285714285715
sg17
F226.09999999999999
sg18
I14
sg19
I0
sg20
I20842
sg21
F16.149999999999999
sg22
VMatt Snell
p305
sa(dp306
g3
F7.1351351351351351
sg4
I11
sg5
F0
sg6
I1259
sg7
F4.1278688524590166
sg8
I37
sg9
F0.036065573770491806
sg10
I264
sg11
F0
sg12
I0
sg13
F78.6875
sg14
F16.5
sg15
I305
sg16
F0.6875
sg17
F255.30000000000001
sg18
I16
sg19
I47
sg20
I12749
sg21
F15.956250000000001
sg22
VEddie Lacy
p307
sa(dp308
g3
F12.181818181818182
sg4
I2
sg5
F0
sg6
I714
sg7
F3.5
sg8
I22
sg9
F0.0098039215686274508
sg10
I268
sg11
F0
sg12
I0
sg13
F39.666666666666664
sg14
F14.888888888888889
sg15
I204
sg16
F0.1111111111111111
sg17
F132.19999999999999
sg18
I18
sg19
I0
sg20
I6228
sg21
F7.3444444444444441
sg22
VJerry Eckwood
p309
sa(dp310
g3
F3.375
sg4
I7
sg5
F0
sg6
I809
sg7
F4.4450549450549453
sg8
I8
sg9
F0.038461538461538464
sg10
I27
sg11
F0
sg12
I0
sg13
F62.230769230769234
sg14
F2.0769230769230771
sg15
I182
sg16
F0.53846153846153844
sg17
F133.59999999999999
sg18
I13
sg19
I13
sg20
I12837
sg21
F10.276923076923076
sg22
VFred Lane
p311
sa(dp312
g3
F8.6724137931034484
sg4
I9
sg5
F0.22222222222222221
sg6
I741
sg7
F3.9838709677419355
sg8
I58
sg9
F0.048387096774193547
sg10
I503
sg11
F0.068965517241379309
sg12
I4
sg13
F41.166666666666664
sg14
F27.944444444444443
sg15
I186
sg16
F0.5
sg17
F260.39999999999998
sg18
I18
sg19
I0
sg20
I4714
sg21
F14.466666666666665
sg22
VRoger Craig
p313
sa(dp314
g3
F6
sg4
I1
sg5
F0
sg6
I416
sg7
F3.7818181818181817
sg8
I5
sg9
F0.0090909090909090905
sg10
I30
sg11
F0
sg12
I0
sg13
F59.428571428571431
sg14
F4.2857142857142856
sg15
I110
sg16
F0.14285714285714285
sg17
F55.600000000000001
sg18
I7
sg19
I8
sg20
I21133
sg21
F7.9428571428571431
sg22
VJames Starks
p315
sa(dp316
g3
F8.0535714285714288
sg4
I11
sg5
F0.058823529411764705
sg6
I1238
sg7
F3.8209876543209877
sg8
I56
sg9
F0.033950617283950615
sg10
I451
sg11
F0.017857142857142856
sg12
I1
sg13
F72.82352941176471
sg14
F26.529411764705884
sg15
I324
sg16
F0.6470588235294118
sg17
F296.89999999999998
sg18
I17
sg19
I0
sg20
I4768
sg21
F17.464705882352941
sg22
VJoe Cribbs
p317
sa(dp318
g3
F9.6666666666666661
sg4
I8
sg5
F0
sg6
I607
sg7
F4.1013513513513518
sg8
I9
sg9
F0.054054054054054057
sg10
I87
sg11
F0
sg12
I0
sg13
F37.9375
sg14
F5.4375
sg15
I148
sg16
F0.5
sg17
F126.40000000000001
sg18
I16
sg19
I14
sg20
I4860
sg21
F7.9000000000000004
sg22
VIsaiah Crowell
p319
sa(dp320
g3
F10.727272727272727
sg4
I6
sg5
F0.090909090909090912
sg6
I540
sg7
F3.9130434782608696
sg8
I11
sg9
F0.043478260869565216
sg10
I118
sg11
F0.090909090909090912
sg12
I1
sg13
F49.090909090909093
sg14
F10.727272727272727
sg15
I138
sg16
F0.54545454545454541
sg17
F118.8
sg18
I11
sg19
I0
sg20
I4885
sg21
F10.799999999999999
sg22
VLarry Csonka 
p321
sa(dp322
g3
F9.0476190476190474
sg4
I2
sg5
F0.071428571428571425
sg6
I525
sg7
F3.832116788321168
sg8
I21
sg9
F0.014598540145985401
sg10
I190
sg11
F0.047619047619047616
sg12
I1
sg13
F37.5
sg14
F13.571428571428571
sg15
I137
sg16
F0.14285714285714285
sg17
F110.5
sg18
I14
sg19
I27
sg20
I21286
sg21
F7.8928571428571432
sg22
VJames Stewart
p323
sa(dp324
g3
F7.8181818181818183
sg4
I11
sg5
F0
sg6
I848
sg7
F4.5347593582887704
sg8
I11
sg9
F0.058823529411764705
sg10
I86
sg11
F0
sg12
I0
sg13
F49.882352941176471
sg14
F5.0588235294117645
sg15
I187
sg16
F0.6470588235294118
sg17
F170.40000000000001
sg18
I17
sg19
I20
sg20
I21291
sg21
F10.023529411764706
sg22
VJonathan Stewart
p325
sa(dp326
g3
F9.5999999999999996
sg4
I4
sg5
F0.071428571428571425
sg6
I516
sg7
F3.3290322580645162
sg8
I15
sg9
F0.025806451612903226
sg10
I144
sg11
F0.066666666666666666
sg12
I1
sg13
F36.857142857142854
sg14
F10.285714285714286
sg15
I155
sg16
F0.2857142857142857
sg17
F111
sg18
I14
sg19
I0
sg20
I4936
sg21
F7.9285714285714288
sg22
VSam Cunningham
p327
sa(dp328
g3
F1.5714285714285714
sg4
I1
sg5
F0
sg6
I381
sg7
F2.9307692307692306
sg8
I7
sg9
F0.0076923076923076927
sg10
I11
sg11
F0
sg12
I0
sg13
F29.307692307692307
sg14
F0.84615384615384615
sg15
I130
sg16
F0.076923076923076927
sg17
F52.200000000000003
sg18
I13
sg19
I0
sg20
I13425
sg21
F4.0153846153846153
sg22
VFloyd Little
p329
sa(dp330
g3
F6.7619047619047619
sg4
I0
sg5
F0.0625
sg6
I519
sg7
F4.5526315789473681
sg8
I21
sg9
F0
sg10
I142
sg11
F0.047619047619047616
sg12
I1
sg13
F32.4375
sg14
F8.875
sg15
I114
sg16
F0
sg17
F93.099999999999994
sg18
I16
sg19
I0
sg20
I5257
sg21
F5.8187499999999996
sg22
VKenneth Davis 
p331
sa(dp332
g3
F6
sg4
I5
sg5
F0.058823529411764705
sg6
I309
sg7
F3.5113636363636362
sg8
I18
sg9
F0.056818181818181816
sg10
I108
sg11
F0.055555555555555552
sg12
I1
sg13
F18.176470588235293
sg14
F6.3529411764705879
sg15
I88
sg16
F0.29411764705882354
sg17
F95.700000000000003
sg18
I17
sg19
I22
sg20
I5258
sg21
F5.6294117647058828
sg22
VKnile Davis 
p333
sa(dp334
g3
F7.4897959183673466
sg4
I7
sg5
F0.071428571428571425
sg6
I1117
sg7
F4.7130801687763713
sg8
I49
sg9
F0.029535864978902954
sg10
I367
sg11
F0.020408163265306121
sg12
I1
sg13
F79.785714285714292
sg14
F26.214285714285715
sg15
I237
sg16
F0.5
sg17
F245.40000000000001
sg18
I14
sg19
I82
sg20
I5308
sg21
F17.528571428571428
sg22
VTerrell Davis 
p335
sa(dp336
g3
F4.5999999999999996
sg4
I5
sg5
F0
sg6
I852
sg7
F3.3411764705882354
sg8
I5
sg9
F0.019607843137254902
sg10
I23
sg11
F0
sg12
I0
sg13
F44.842105263157897
sg14
F1.2105263157894737
sg15
I255
sg16
F0.26315789473684209
sg17
F122.5
sg18
I19
sg19
I6
sg20
I5377
sg21
F6.4473684210526319
sg22
VRon Dayne
p337
sa(dp338
g3
F4.5999999999999996
sg4
I7
sg5
F0.066666666666666666
sg6
I467
sg7
F3.8278688524590163
sg8
I5
sg9
F0.05737704918032787
sg10
I23
sg11
F0.20000000000000001
sg12
I1
sg13
F31.133333333333333
sg14
F1.5333333333333334
sg15
I122
sg16
F0.46666666666666667
sg17
F102
sg18
I15
sg19
I0
sg20
I21801
sg21
F6.7999999999999998
sg22
VLars Tate
p339
sa(dp340
g3
F11.181818181818182
sg4
I3
sg5
F0
sg6
I1121
sg7
F4.7905982905982905
sg8
I22
sg9
F0.01282051282051282
sg10
I246
sg11
F0
sg12
I0
sg13
F74.733333333333334
sg14
F16.399999999999999
sg15
I234
sg16
F0.20000000000000001
sg17
F176.69999999999999
sg18
I15
sg19
I0
sg20
I5439
sg21
F11.779999999999999
sg22
VJoe Delaney
p341
sa(dp342
g3
F6.615384615384615
sg4
I0
sg5
F0
sg6
I348
sg7
F2.9491525423728815
sg8
I13
sg9
F0
sg10
I86
sg11
F0
sg12
I0
sg13
F34.799999999999997
sg14
F8.5999999999999996
sg15
I118
sg16
F0
sg17
F56.399999999999999
sg18
I10
sg19
I0
sg20
I21824
sg21
F5.6399999999999997
sg22
VAltie Taylor
p343
sa(dp344
g3
F9.5681818181818183
sg4
I15
sg5
F0.17647058823529413
sg6
I1471
sg7
F4.6403785488958986
sg8
I44
sg9
F0.047318611987381701
sg10
I421
sg11
F0.068181818181818177
sg12
I3
sg13
F86.529411764705884
sg14
F24.764705882352942
sg15
I317
sg16
F0.88235294117647056
sg17
F341.19999999999999
sg18
I17
sg19
I53
sg20
I21850
sg21
F20.070588235294117
sg22
VFred Taylor
p345
sa(dp346
g3
F10.222222222222221
sg4
I7
sg5
F0
sg6
I1115
sg7
F3.9821428571428572
sg8
I18
sg9
F0.025000000000000001
sg10
I184
sg11
F0
sg12
I0
sg13
F85.769230769230774
sg14
F14.153846153846153
sg15
I280
sg16
F0.53846153846153844
sg17
F189.90000000000001
sg18
I13
sg19
I26
sg20
I13751
sg21
F14.607692307692307
sg22
VMarshawn Lynch 
p347
sa(dp348
g3
F10.241379310344827
sg4
I7
sg5
F0.17647058823529413
sg6
I1160
sg7
F4.9361702127659575
sg8
I29
sg9
F0.029787234042553193
sg10
I297
sg11
F0.10344827586206896
sg12
I3
sg13
F68.235294117647058
sg14
F17.470588235294116
sg15
I235
sg16
F0.41176470588235292
sg17
F234.69999999999999
sg18
I17
sg19
I0
sg20
I13796
sg21
F13.805882352941175
sg22
VKevin Mack
p349
sa(dp350
g3
F7.1864406779661021
sg4
I18
sg5
F0.1111111111111111
sg6
I1923
sg7
F4.5460992907801421
sg8
I59
sg9
F0.042553191489361701
sg10
I424
sg11
F0.033898305084745763
sg12
I2
sg13
F106.83333333333333
sg14
F23.555555555555557
sg15
I423
sg16
F1
sg17
F413.69999999999999
sg18
I18
sg19
I0
sg20
I5605
sg21
F22.983333333333334
sg22
VEric Dickerson
p351
sa(dp352
g3
F8.1600000000000001
sg4
I11
sg5
F0.13333333333333333
sg6
I800
sg7
F4.5454545454545459
sg8
I25
sg9
F0.0625
sg10
I204
sg11
F0.080000000000000002
sg12
I2
sg13
F53.333333333333336
sg14
F13.6
sg15
I176
sg16
F0.73333333333333328
sg17
F203.40000000000001
sg18
I15
sg19
I0
sg20
I5609
sg21
F13.56
sg22
VCurtis Dickey
p353
sa(dp354
g3
F8.2173913043478262
sg4
I7
sg5
F0
sg6
I1219
sg7
F4.1604095563139936
sg8
I23
sg9
F0.023890784982935155
sg10
I189
sg11
F0
sg12
I0
sg13
F81.266666666666666
sg14
F12.6
sg15
I293
sg16
F0.46666666666666667
sg17
F205.80000000000001
sg18
I15
sg19
I31
sg20
I22001
sg21
F13.720000000000001
sg22
VAnthony Thomas
p355
sa(dp356
g3
F10.199999999999999
sg4
I1
sg5
F0.066666666666666666
sg6
I620
sg7
F5.0406504065040654
sg8
I20
sg9
F0.008130081300813009
sg10
I204
sg11
F0.050000000000000003
sg12
I1
sg13
F41.333333333333336
sg14
F13.6
sg15
I123
sg16
F0.066666666666666666
sg17
F114.40000000000001
sg18
I15
sg19
I0
sg20
I22004
sg21
F7.6266666666666669
sg22
VBlair Thomas
p357
sa(dp358
g3
F6
sg4
I0
sg5
F0.076923076923076927
sg6
I581
sg7
F3.521212121212121
sg8
I12
sg9
F0
sg10
I72
sg11
F0.083333333333333329
sg12
I1
sg13
F44.692307692307693
sg14
F5.5384615384615383
sg15
I165
sg16
F0
sg17
F83.299999999999997
sg18
I13
sg19
I16
sg20
I22024
sg21
F6.4076923076923071
sg22
VDaniel Thomas
p359
sa(dp360
g3
F7.375
sg4
I6
sg5
F0.058823529411764705
sg6
I1116
sg7
F4.9380530973451329
sg8
I16
sg9
F0.026548672566371681
sg10
I118
sg11
F0.0625
sg12
I1
sg13
F65.647058823529406
sg14
F6.9411764705882355
sg15
I226
sg16
F0.35294117647058826
sg17
F181.40000000000001
sg18
I17
sg19
I0
sg20
I22037
sg21
F10.670588235294119
sg22
VDuane Thomas
p361
sa(dp362
g3
F9.5925925925925934
sg4
I10
sg5
F0
sg6
I1129
sg7
F4.8454935622317601
sg8
I27
sg9
F0.042918454935622317
sg10
I259
sg11
F0
sg12
I0
sg13
F70.5625
sg14
F16.1875
sg15
I233
sg16
F0.625
sg17
F225.80000000000001
sg18
I16
sg19
I33
sg20
I5655
sg21
F14.112500000000001
sg22
VCorey Dillon
p363
sa(dp364
g3
F12.074999999999999
sg4
I4
sg5
F0.21428571428571427
sg6
I919
sg7
F3.9106382978723406
sg8
I40
sg9
F0.017021276595744681
sg10
I483
sg11
F0.074999999999999997
sg12
I3
sg13
F65.642857142857139
sg14
F34.5
sg15
I235
sg16
F0.2857142857142857
sg17
F222.19999999999999
sg18
I14
sg19
I0
sg20
I22096
sg21
F15.87142857142857
sg22
VMike Thomas
p365
sa(dp366
g3
F11.555555555555555
sg4
I3
sg5
F0
sg6
I962
sg7
F4.4128440366972477
sg8
I18
sg9
F0.013761467889908258
sg10
I208
sg11
F0
sg12
I0
sg13
F56.588235294117645
sg14
F12.235294117647058
sg15
I218
sg16
F0.17647058823529413
sg17
F153
sg18
I17
sg19
I0
sg20
I22128
sg21
F9
sg22
VThurman Thomas
p367
sa(dp368
g3
F5.5
sg4
I4
sg5
F0
sg6
I390
sg7
F3.6792452830188678
sg8
I2
sg9
F0.037735849056603772
sg10
I11
sg11
F0
sg12
I0
sg13
F30
sg14
F0.84615384615384615
sg15
I106
sg16
F0.30769230769230771
sg17
F66.099999999999994
sg18
I13
sg19
I0
sg20
I22147
sg21
F5.0846153846153843
sg22
VAnthony Thompson
p369
sa(dp370
g3
F9.7272727272727266
sg4
I16
sg5
F0.058823529411764705
sg6
I1229
sg7
F4.7451737451737452
sg8
I33
sg9
F0.061776061776061778
sg10
I321
sg11
F0.030303030303030304
sg12
I1
sg13
F72.294117647058826
sg14
F18.882352941176471
sg15
I259
sg16
F0.94117647058823528
sg17
F290
sg18
I17
sg19
I0
sg20
I5830
sg21
F17.058823529411764
sg22
VTony Dorsett
p371
sa(dp372
g3
F8.695652173913043
sg4
I6
sg5
F0.058823529411764705
sg6
I832
sg7
F4.0388349514563107
sg8
I23
sg9
F0.029126213592233011
sg10
I200
sg11
F0.043478260869565216
sg12
I1
sg13
F48.941176470588232
sg14
F11.764705882352942
sg15
I206
sg16
F0.35294117647058826
sg17
F168.19999999999999
sg18
I17
sg19
I32
sg20
I14071
sg21
F9.8941176470588221
sg22
VLaurence Maroney
p373
sa(dp374
g3
F8.6999999999999993
sg4
I14
sg5
F0.0625
sg6
I1487
sg7
F4.0407608695652177
sg8
I30
sg9
F0.038043478260869568
sg10
I261
sg11
F0.033333333333333333
sg12
I1
sg13
F92.9375
sg14
F16.3125
sg15
I368
sg16
F0.875
sg17
F294.80000000000001
sg18
I16
sg19
I50
sg20
I14142
sg21
F18.425000000000001
sg22
VCurtis Martin 
p375
sa(dp376
g3
F9.6326530612244898
sg4
I11
sg5
F0.0625
sg6
I1454
sg7
F4.5579937304075235
sg8
I49
sg9
F0.034482758620689655
sg10
I472
sg11
F0.020408163265306121
sg12
I1
sg13
F90.875
sg14
F29.5
sg15
I319
sg16
F0.6875
sg17
F313.60000000000002
sg18
I16
sg19
I70
sg20
I14151
sg21
F19.600000000000001
sg22
VDoug Martin 
p377
sa(dp378
g3
F7.9000000000000004
sg4
I5
sg5
F0
sg6
I557
sg7
F3.738255033557047
sg8
I10
sg9
F0.033557046979865772
sg10
I79
sg11
F0
sg12
I0
sg13
F39.785714285714285
sg14
F5.6428571428571432
sg15
I149
sg16
F0.35714285714285715
sg17
F103.59999999999999
sg18
I14
sg19
I12
sg20
I5998
sg21
F7.3999999999999995
sg22
VT.J. Duckett
p379
sa(dp380
g3
F6.2203389830508478
sg4
I10
sg5
F0
sg6
I1236
sg7
F3.6460176991150441
sg8
I59
sg9
F0.029498525073746312
sg10
I367
sg11
F0
sg12
I0
sg13
F77.25
sg14
F22.9375
sg15
I339
sg16
F0.625
sg17
F279.30000000000001
sg18
I16
sg19
I74
sg20
I22399
sg21
F17.456250000000001
sg22
VLaDainian Tomlinson
p381
sa(dp382
g3
F6.5909090909090908
sg4
I7
sg5
F0
sg6
I678
sg7
F4.2911392405063289
sg8
I22
sg9
F0.044303797468354431
sg10
I145
sg11
F0
sg12
I0
sg13
F56.5
sg14
F12.083333333333334
sg15
I158
sg16
F0.58333333333333337
sg17
F146.30000000000001
sg18
I12
sg19
I26
sg20
I14267
sg21
F12.191666666666668
sg22
VRyan Mathews
p383
sa(dp384
g3
F11.272727272727273
sg4
I4
sg5
F0.16666666666666666
sg6
I1114
sg7
F4.2846153846153845
sg8
I44
sg9
F0.015384615384615385
sg10
I496
sg11
F0.068181818181818177
sg12
I3
sg13
F61.888888888888886
sg14
F27.555555555555557
sg15
I260
sg16
F0.22222222222222221
sg17
F247
sg18
I18
sg19
I67
sg20
I6102
sg21
F13.722222222222221
sg22
VWarrick Dunn
p385
sa(dp386
g3
F7
sg4
I2
sg5
F0.071428571428571425
sg6
I714
sg7
F4.3272727272727272
sg8
I42
sg9
F0.012121212121212121
sg10
I294
sg11
F0.023809523809523808
sg12
I1
sg13
F51
sg14
F21
sg15
I165
sg16
F0.14285714285714285
sg17
F160.80000000000001
sg18
I14
sg19
I0
sg20
I14352
sg21
F11.485714285714286
sg22
VAlvin Maxson
p387
sa(dp388
g3
F5.6470588235294121
sg4
I8
sg5
F0
sg6
I1353
sg7
F4.7307692307692308
sg8
I17
sg9
F0.027972027972027972
sg10
I96
sg11
F0
sg12
I0
sg13
F84.5625
sg14
F6
sg15
I286
sg16
F0.5
sg17
F209.90000000000001
sg18
I16
sg19
I0
sg20
I14385
sg21
F13.11875
sg22
VRueben Mayes
p389
sa(dp390
g3
F10.181818181818182
sg4
I0
sg5
F0
sg6
I394
sg7
F4.2826086956521738
sg8
I22
sg9
F0
sg10
I224
sg11
F0
sg12
I0
sg13
F21.888888888888889
sg14
F12.444444444444445
sg15
I92
sg16
F0
sg17
F83.799999999999997
sg18
I18
sg19
I27
sg20
I22612
sg21
F4.655555555555555
sg22
VRobert Turbin
p391
sa(dp392
g3
F9.5128205128205128
sg4
I3
sg5
F0.066666666666666666
sg6
I652
sg7
F5.5254237288135597
sg8
I39
sg9
F0.025423728813559324
sg10
I371
sg11
F0.02564102564102564
sg12
I1
sg13
F43.466666666666669
sg14
F24.733333333333334
sg15
I118
sg16
F0.20000000000000001
sg17
F165.30000000000001
sg18
I15
sg19
I57
sg20
I6367
sg21
F11.020000000000001
sg22
VAndre Ellington
p393
sa(dp394
g3
F10.939393939393939
sg4
I15
sg5
F0.0625
sg6
I1756
sg7
F5.1046511627906979
sg8
I33
sg9
F0.043604651162790699
sg10
I361
sg11
F0.030303030303030304
sg12
I1
sg13
F109.75
sg14
F22.5625
sg15
I344
sg16
F0.9375
sg17
F340.69999999999999
sg18
I16
sg19
I40
sg20
I6375
sg21
F21.293749999999999
sg22
VEzekiel Elliott
p395
sa(dp396
g3
F10.333333333333334
sg4
I5
sg5
F0.20000000000000001
sg6
I545
sg7
F4.3253968253968251
sg8
I48
sg9
F0.03968253968253968
sg10
I496
sg11
F0.0625
sg12
I3
sg13
F36.333333333333336
sg14
F33.06666666666667
sg15
I126
sg16
F0.33333333333333331
sg17
F200.09999999999999
sg18
I15
sg19
I0
sg20
I6398
sg21
F13.34
sg22
VGerry Ellis
p397
sa(dp398
g3
F7.7317073170731705
sg4
I4
sg5
F0
sg6
I661
sg7
F4.1312499999999996
sg8
I41
sg9
F0.025000000000000001
sg10
I317
sg11
F0
sg12
I0
sg13
F38.882352941176471
sg14
F18.647058823529413
sg15
I160
sg16
F0.23529411764705882
sg17
F162.80000000000001
sg18
I17
sg19
I57
sg20
I14591
sg21
F9.5764705882352956
sg22
VLeSean McCoy
p399
sa(dp400
g3
F9.8461538461538467
sg4
I0
sg5
F0
sg6
I369
sg7
F3.7272727272727271
sg8
I13
sg9
F0
sg10
I128
sg11
F0
sg12
I0
sg13
F26.357142857142858
sg14
F9.1428571428571423
sg15
I99
sg16
F0
sg17
F62.700000000000003
sg18
I14
sg19
I13
sg20
I22856
sg21
F4.4785714285714286
sg22
VTommy Vardell
p401
sa(dp402
g3
F3.3333333333333335
sg4
I0
sg5
F0
sg6
I497
sg7
F3.736842105263158
sg8
I6
sg9
F0
sg10
I20
sg11
F0
sg12
I0
sg13
F55.222222222222221
sg14
F2.2222222222222223
sg15
I133
sg16
F0
sg17
F57.700000000000003
sg18
I9
sg19
I8
sg20
I6487
sg21
F6.4111111111111114
sg22
VCurtis Enis
p403
sa(dp404
g3
F7
sg4
I4
sg5
F0
sg6
I1168
sg7
F3.9326599326599325
sg8
I14
sg9
F0.013468013468013467
sg10
I98
sg11
F0
sg12
I0
sg13
F73
sg14
F6.125
sg15
I297
sg16
F0.25
sg17
F164.59999999999999
sg18
I16
sg19
I0
sg20
I21221
sg21
F10.2875
sg22
VJohn Stephens
p405
sa(dp406
g3
F10.789473684210526
sg4
I4
sg5
F0.055555555555555552
sg6
I909
sg7
F4.6855670103092786
sg8
I19
sg9
F0.020618556701030927
sg10
I205
sg11
F0.052631578947368418
sg12
I1
sg13
F50.5
sg14
F11.388888888888889
sg15
I194
sg16
F0.22222222222222221
sg17
F160.40000000000001
sg18
I18
sg19
I0
sg20
I6523
sg21
F8.9111111111111114
sg22
VRicky Ervins
p407
sa(dp408
g3
F7.6818181818181817
sg4
I13
sg5
F0
sg6
I1128
sg7
F3.971830985915493
sg8
I22
sg9
F0.045774647887323945
sg10
I169
sg11
F0
sg12
I0
sg13
F70.5
sg14
F10.5625
sg15
I284
sg16
F0.8125
sg17
F229.69999999999999
sg18
I16
sg19
I36
sg20
I14741
sg21
F14.356249999999999
sg22
VWillis McGahee
p409
sa(dp410
g3
F9.8275862068965516
sg4
I4
sg5
F0
sg6
I499
sg7
F4.4159292035398234
sg8
I29
sg9
F0.035398230088495575
sg10
I285
sg11
F0
sg12
I0
sg13
F38.384615384615387
sg14
F21.923076923076923
sg15
I113
sg16
F0.30769230769230771
sg17
F131.40000000000001
sg18
I13
sg19
I39
sg20
I14725
sg21
F10.107692307692307
sg22
VDarren McFadden
p411
sa(dp412
g3
F8.1282051282051277
sg4
I3
sg5
F0.23076923076923078
sg6
I860
sg7
F4.174757281553398
sg8
I39
sg9
F0.014563106796116505
sg10
I317
sg11
F0.076923076923076927
sg12
I3
sg13
F66.15384615384616
sg14
F24.384615384615383
sg15
I206
sg16
F0.23076923076923078
sg17
F192.69999999999999
sg18
I13
sg19
I0
sg20
I6700
sg21
F14.823076923076922
sg22
VMel Farr
p413
sa(dp414
g3
F11.013157894736842
sg4
I12
sg5
F0.125
sg6
I737
sg7
F4.8807947019867548
sg8
I76
sg9
F0.079470198675496692
sg10
I837
sg11
F0.026315789473684209
sg12
I2
sg13
F46.0625
sg14
F52.3125
sg15
I151
sg16
F0.75
sg17
F317.39999999999998
sg18
I16
sg19
I0
sg20
I23099
sg21
F19.837499999999999
sg22
VHerschel Walker
p415
sa(dp416
g3
F10.038461538461538
sg4
I11
sg5
F0.0625
sg6
I1282
sg7
F4.0828025477707008
sg8
I52
sg9
F0.035031847133757961
sg10
I522
sg11
F0.019230769230769232
sg12
I1
sg13
F80.125
sg14
F32.625
sg15
I314
sg16
F0.6875
sg17
F304.39999999999998
sg18
I16
sg19
I74
sg20
I6728
sg21
F19.024999999999999
sg22
VMarshall Faulk
p417
sa(dp418
g3
F9.3200000000000003
sg4
I3
sg5
F0.0625
sg6
I597
sg7
F4.0067114093959733
sg8
I50
sg9
F0.020134228187919462
sg10
I466
sg11
F0.02
sg12
I1
sg13
F37.3125
sg14
F29.125
sg15
I149
sg16
F0.1875
sg17
F180.30000000000001
sg18
I16
sg19
I0
sg20
I14953
sg21
F11.268750000000001
sg22
VRandy McMillan
p419
sa(dp420
g3
F9.5
sg4
I2
sg5
F0.083333333333333329
sg6
I655
sg7
F4.3959731543624159
sg8
I18
sg9
F0.013422818791946308
sg10
I171
sg11
F0.055555555555555552
sg12
I1
sg13
F54.583333333333336
sg14
F14.25
sg15
I149
sg16
F0.16666666666666666
sg17
F118.59999999999999
sg18
I12
sg19
I0
sg20
I14986
sg21
F9.8833333333333329
sg22
VFreeman McNeil
p421
sa(dp422
g3
F10.5
sg4
I2
sg5
F0
sg6
I384
sg7
F4.7407407407407405
sg8
I22
sg9
F0.024691358024691357
sg10
I231
sg11
F0
sg12
I0
sg13
F24
sg14
F14.4375
sg15
I81
sg16
F0.125
sg17
F95.5
sg18
I16
sg19
I0
sg20
I6808
sg21
F5.96875
sg22
VGill Fenerty
p423
sa(dp424
g3
F5.9000000000000004
sg4
I8
sg5
F0
sg6
I645
sg7
F4.03125
sg8
I10
sg9
F0.050000000000000003
sg10
I59
sg11
F0
sg12
I0
sg13
F40.3125
sg14
F3.6875
sg15
I160
sg16
F0.5
sg17
F128.40000000000001
sg18
I16
sg19
I18
sg20
I15055
sg21
F8.0250000000000004
sg22
VNatrone Means
p425
sa(dp426
g3
F6.7222222222222223
sg4
I7
sg5
F0
sg6
I917
sg7
F3.4216417910447761
sg8
I18
sg9
F0.026119402985074626
sg10
I121
sg11
F0
sg12
I0
sg13
F53.941176470588232
sg14
F7.117647058823529
sg15
I268
sg16
F0.41176470588235292
sg17
F163.80000000000001
sg18
I17
sg19
I29
sg20
I8412
sg21
F9.6352941176470601
sg22
VWilliam Green
p427
sa(dp428
g3
F10.172413793103448
sg4
I4
sg5
F0
sg6
I700
sg7
F4.3209876543209873
sg8
I29
sg9
F0.024691358024691357
sg10
I295
sg11
F0
sg12
I0
sg13
F41.176470588235297
sg14
F17.352941176470587
sg15
I162
sg16
F0.23529411764705882
sg17
F152.5
sg18
I17
sg19
I38
sg20
I23345
sg21
F8.9705882352941178
sg22
VLeon Washington
p429
sa(dp430
g3
F9.6666666666666661
sg4
I9
sg5
F0.125
sg6
I1165
sg7
F4.957446808510638
sg8
I51
sg9
F0.038297872340425532
sg10
I493
sg11
F0.039215686274509803
sg12
I2
sg13
F72.8125
sg14
F30.8125
sg15
I235
sg16
F0.5625
sg17
F282.80000000000001
sg18
I16
sg19
I63
sg20
I23431
sg21
F17.675000000000001
sg22
VRicky Watters
p431
sa(dp432
g3
F8.9795918367346932
sg4
I5
sg5
F0.13333333333333333
sg6
I935
sg7
F4.269406392694064
sg8
I49
sg9
F0.022831050228310501
sg10
I440
sg11
F0.040816326530612242
sg12
I2
sg13
F62.333333333333336
sg14
F29.333333333333332
sg15
I219
sg16
F0.33333333333333331
sg17
F228.5
sg18
I15
sg19
I0
sg20
I7143
sg21
F15.233333333333333
sg22
VChuck Foreman
p433
sa(dp434
g3
F7.5714285714285712
sg4
I8
sg5
F0.25
sg6
I1238
sg7
F3.9177215189873418
sg8
I63
sg9
F0.025316455696202531
sg10
I477
sg11
F0.063492063492063489
sg12
I4
sg13
F77.375
sg14
F29.8125
sg15
I316
sg16
F0.5
sg17
F306.5
sg18
I16
sg19
I76
sg20
I7164
sg21
F19.15625
sg22
VMatt Forte 
p435
sa(dp436
g3
F11.181818181818182
sg4
I7
sg5
F0
sg6
I1060
sg7
F4.4537815126050422
sg8
I22
sg9
F0.029411764705882353
sg10
I246
sg11
F0
sg12
I0
sg13
F66.25
sg14
F15.375
sg15
I238
sg16
F0.4375
sg17
F194.59999999999999
sg18
I16
sg19
I0
sg20
I15367
sg21
F12.1625
sg22
VTerry Miller
p437
sa(dp438
g3
F11.705882352941176
sg4
I2
sg5
F0
sg6
I478
sg7
F3.8861788617886179
sg8
I17
sg9
F0.016260162601626018
sg10
I199
sg11
F0
sg12
I0
sg13
F31.866666666666667
sg14
F13.266666666666667
sg15
I123
sg16
F0.13333333333333333
sg17
F96.700000000000003
sg18
I15
sg19
I0
sg20
I7182
sg21
F6.4466666666666672
sg22
VGene Foster 
p439
sa(dp440
g3
F11.916666666666666
sg4
I8
sg5
F0
sg6
I891
sg7
F4.569230769230769
sg8
I12
sg9
F0.041025641025641026
sg10
I143
sg11
F0
sg12
I0
sg13
F49.5
sg14
F7.9444444444444446
sg15
I195
sg16
F0.44444444444444442
sg17
F163.40000000000001
sg18
I18
sg19
I16
sg20
I23582
sg21
F9.0777777777777775
sg22
VBeanie Wells
p441
sa(dp442
g3
F2
sg4
I7
sg5
F0.058823529411764705
sg6
I717
sg7
F3.4142857142857141
sg8
I3
sg9
F0.033333333333333333
sg10
I6
sg11
F0.33333333333333331
sg12
I1
sg13
F42.176470588235297
sg14
F0.35294117647058826
sg15
I210
sg16
F0.41176470588235292
sg17
F123.3
sg18
I17
sg19
I0
sg20
I7276
sg21
F7.2529411764705882
sg22
VAndra Franklin
p443
sa(dp444
g3
F9
sg4
I5
sg5
F0.066666666666666666
sg6
I279
sg7
F3.2441860465116279
sg8
I17
sg9
F0.058139534883720929
sg10
I153
sg11
F0.058823529411764705
sg12
I1
sg13
F18.600000000000001
sg14
F10.199999999999999
sg15
I86
sg16
F0.33333333333333331
sg17
F96.200000000000003
sg18
I15
sg19
I0
sg20
I23745
sg21
F6.4133333333333331
sg22
VCharles White
p445
sa(dp446
g3
F9.7560975609756095
sg4
I3
sg5
F0.14285714285714285
sg6
I724
sg7
F4.6114649681528661
sg8
I41
sg9
F0.019108280254777069
sg10
I400
sg11
F0.04878048780487805
sg12
I2
sg13
F51.714285714285715
sg14
F28.571428571428573
sg15
I157
sg16
F0.21428571428571427
sg17
F183.40000000000001
sg18
I14
sg19
I0
sg20
I7505
sg21
F13.1
sg22
VClark Gaines
p447
sa(dp448
g3
F7.7777777777777777
sg4
I7
sg5
F0.071428571428571425
sg6
I570
sg7
F4.1911764705882355
sg8
I54
sg9
F0.051470588235294115
sg10
I420
sg11
F0.018518518518518517
sg12
I1
sg13
F40.714285714285715
sg14
F30
sg15
I136
sg16
F0.5
sg17
F201
sg18
I14
sg19
I0
sg20
I7526
sg21
F14.357142857142858
sg22
VTony Galbreath
p449
sa(dp450
g3
F10.571428571428571
sg4
I4
sg5
F0.058823529411764705
sg6
I393
sg7
F3.5405405405405403
sg8
I49
sg9
F0.036036036036036036
sg10
I518
sg11
F0.020408163265306121
sg12
I1
sg13
F23.117647058823529
sg14
F30.470588235294116
sg15
I111
sg16
F0.23529411764705882
sg17
F170.09999999999999
sg18
I17
sg19
I0
sg20
I23923
sg21
F10.005882352941176
sg22
VJames Wilder
p451
sa(dp452
g3
F5.333333333333333
sg4
I9
sg5
F0
sg6
I1018
sg7
F3.8707224334600761
sg8
I3
sg9
F0.034220532319391636
sg10
I16
sg11
F0
sg12
I0
sg13
F63.625
sg14
F1
sg15
I263
sg16
F0.5625
sg17
F160.40000000000001
sg18
I16
sg19
I7
sg20
I15733
sg21
F10.025
sg22
VRonald Moore
p453
sa(dp454
g3
F7.6071428571428568
sg4
I7
sg5
F0.125
sg6
I947
sg7
F3.834008097165992
sg8
I28
sg9
F0.028340080971659919
sg10
I213
sg11
F0.071428571428571425
sg12
I2
sg13
F59.1875
sg14
F13.3125
sg15
I247
sg16
F0.4375
sg17
F198
sg18
I16
sg19
I41
sg20
I15773
sg21
F12.375
sg22
VKnowshon Moreno
p455
sa(dp456
g3
F7.90625
sg4
I5
sg5
F0.2857142857142857
sg6
I778
sg7
F4.1164021164021163
sg8
I32
sg9
F0.026455026455026454
sg10
I253
sg11
F0.125
sg12
I4
sg13
F55.571428571428569
sg14
F18.071428571428573
sg15
I189
sg16
F0.35714285714285715
sg17
F189.09999999999999
sg18
I14
sg19
I0
sg20
I23966
sg21
F13.507142857142856
sg22
VKen Willard
p457
sa(dp458
g3
F3.9565217391304346
sg4
I6
sg5
F0
sg6
I1227
sg7
F3.9837662337662336
sg8
I23
sg9
F0.01948051948051948
sg10
I91
sg11
F0
sg12
I0
sg13
F81.799999999999997
sg14
F6.0666666666666664
sg15
I308
sg16
F0.40000000000000002
sg17
F190.80000000000001
sg18
I15
sg19
I28
sg20
I24008
sg21
F12.720000000000001
sg22
VCadillac Williams
p459
sa(dp460
g3
F9.25
sg4
I3
sg5
F0
sg6
I399
sg7
F3.6605504587155964
sg8
I8
sg9
F0.027522935779816515
sg10
I74
sg11
F0
sg12
I0
sg13
F39.899999999999999
sg14
F7.4000000000000004
sg15
I109
sg16
F0.29999999999999999
sg17
F73.299999999999997
sg18
I10
sg19
I12
sg20
I7625
sg21
F7.3300000000000001
sg22
VCharlie Garner
p461
sa(dp462
g3
F8.8695652173913047
sg4
I7
sg5
F0
sg6
I898
sg7
F4.045045045045045
sg8
I23
sg9
F0.031531531531531529
sg10
I204
sg11
F0
sg12
I0
sg13
F52.823529411764703
sg14
F12
sg15
I222
sg16
F0.41176470588235292
sg17
F175.19999999999999
sg18
I17
sg19
I27
sg20
I15819
sg21
F10.305882352941175
sg22
VBam Morris 
p463
sa(dp464
g3
F9.2068965517241388
sg4
I5
sg5
F0.14285714285714285
sg6
I691
sg7
F5.0437956204379564
sg8
I29
sg9
F0.036496350364963501
sg10
I267
sg11
F0.068965517241379309
sg12
I2
sg13
F49.357142857142854
sg14
F19.071428571428573
sg15
I137
sg16
F0.35714285714285715
sg17
F166.80000000000001
sg18
I14
sg19
I0
sg20
I7641
sg21
F11.914285714285715
sg22
VCarl Garrett
p465
sa(dp466
g3
F3
sg4
I2
sg5
F0
sg6
I437
sg7
F3.4682539682539684
sg8
I1
sg9
F0.015873015873015872
sg10
I3
sg11
F0
sg12
I0
sg13
F27.3125
sg14
F0.1875
sg15
I126
sg16
F0.125
sg17
F57
sg18
I16
sg19
I0
sg20
I15834
sg21
F3.5625
sg22
VJamie Morris 
p467
sa(dp468
g3
F9.954545454545455
sg4
I8
sg5
F0.0625
sg6
I857
sg7
F5.1626506024096388
sg8
I22
sg9
F0.048192771084337352
sg10
I219
sg11
F0.045454545454545456
sg12
I1
sg13
F53.5625
sg14
F13.6875
sg15
I166
sg16
F0.5
sg17
F183.59999999999999
sg18
I16
sg19
I0
sg20
I7650
sg21
F11.475
sg22
VMike Garrett
p469
sa(dp470
g3
F9.4848484848484844
sg4
I1
sg5
F0.076923076923076927
sg6
I501
sg7
F4.1404958677685952
sg8
I33
sg9
F0.0082644628099173556
sg10
I313
sg11
F0.030303030303030304
sg12
I1
sg13
F38.53846153846154
sg14
F24.076923076923077
sg15
I121
sg16
F0.076923076923076927
sg17
F126.40000000000001
sg18
I13
sg19
I36
sg20
I24043
sg21
F9.7230769230769241
sg22
VDeAngelo Williams
p471
sa(dp472
g3
F7.4680851063829783
sg4
I8
sg5
F0
sg6
I1031
sg7
F4.3319327731092434
sg8
I47
sg9
F0.033613445378151259
sg10
I351
sg11
F0
sg12
I0
sg13
F73.642857142857139
sg14
F25.071428571428573
sg15
I238
sg16
F0.5714285714285714
sg17
F233.19999999999999
sg18
I14
sg19
I68
sg20
I24054
sg21
F16.657142857142855
sg22
VDomanick Williams
p473
sa(dp474
g3
F7.9130434782608692
sg4
I8
sg5
F0
sg6
I1368
sg7
F4.0835820895522392
sg8
I23
sg9
F0.023880597014925373
sg10
I182
sg11
F0
sg12
I0
sg13
F85.5
sg14
F11.375
sg15
I335
sg16
F0.5
sg17
F226
sg18
I16
sg19
I28
sg20
I7763
sg21
F14.125
sg22
VEddie George
p475
sa(dp476
g3
F7.9523809523809526
sg4
I1
sg5
F0
sg6
I322
sg7
F3.9753086419753085
sg8
I21
sg9
F0.012345679012345678
sg10
I167
sg11
F0
sg12
I0
sg13
F21.466666666666665
sg14
F11.133333333333333
sg15
I81
sg16
F0.066666666666666666
sg17
F75.900000000000006
sg18
I15
sg19
I29
sg20
I7783
sg21
F5.0600000000000005
sg22
VToby Gerhart 
p477
sa(dp478
g3
F8.7741935483870961
sg4
I2
sg5
F0
sg6
I659
sg7
F4.4228187919463089
sg8
I31
sg9
F0.013422818791946308
sg10
I272
sg11
F0
sg12
I0
sg13
F54.916666666666664
sg14
F22.666666666666668
sg15
I149
sg16
F0.16666666666666666
sg17
F136.09999999999999
sg18
I12
sg19
I0
sg20
I16024
sg21
F11.341666666666667
sg22
VChuck Muncie
p479
sa(dp480
g3
F6.1428571428571432
sg4
I2
sg5
F0
sg6
I884
sg7
F3.4940711462450591
sg8
I28
sg9
F0.0079051383399209481
sg10
I172
sg11
F0
sg12
I0
sg13
F73.666666666666671
sg14
F14.333333333333334
sg15
I253
sg16
F0.16666666666666666
sg17
F145.59999999999999
sg18
I12
sg19
I40
sg20
I24219
sg21
F12.133333333333333
sg22
VRicky Williams
p481
sa(dp482
g3
F7.0384615384615383
sg4
I2
sg5
F0
sg6
I897
sg7
F5.4695121951219514
sg8
I26
sg9
F0.012195121951219513
sg10
I183
sg11
F0
sg12
I0
sg13
F69
sg14
F14.076923076923077
sg15
I164
sg16
F0.15384615384615385
sg17
F146
sg18
I13
sg19
I35
sg20
I16086
sg21
F11.23076923076923
sg22
VDeMarco Murray
p483
sa(dp484
g3
F9.2916666666666661
sg4
I7
sg5
F0
sg6
I590
sg7
F4.3703703703703702
sg8
I24
sg9
F0.05185185185185185
sg10
I223
sg11
F0
sg12
I0
sg13
F42.142857142857146
sg14
F15.928571428571429
sg15
I135
sg16
F0.5
sg17
F147.30000000000001
sg18
I14
sg19
I0
sg20
I24310
sg21
F10.521428571428572
sg22
VFred Willis
p485
sa(dp486
g3
F6.916666666666667
sg4
I5
sg5
F0
sg6
I321
sg7
F2.8918918918918921
sg8
I12
sg9
F0.045045045045045043
sg10
I83
sg11
F0
sg12
I0
sg13
F24.692307692307693
sg14
F6.384615384615385
sg15
I111
sg16
F0.38461538461538464
sg17
F82.400000000000006
sg18
I13
sg19
I0
sg20
I16176
sg21
F6.338461538461539
sg22
VJim Nance
p487
sa(dp488
g3
F7.2272727272727275
sg4
I1
sg5
F0
sg6
I790
sg7
F4.9375
sg8
I22
sg9
F0.0062500000000000003
sg10
I159
sg11
F0
sg12
I0
sg13
F52.666666666666664
sg14
F10.6
sg15
I160
sg16
F0.066666666666666666
sg17
F122.90000000000001
sg18
I15
sg19
I0
sg20
I10899
sg21
F8.1933333333333334
sg22
VCraig James
p489
sa(dp490
g3
F7.25
sg4
I4
sg5
F0.066666666666666666
sg6
I907
sg7
F4.3816425120772946
sg8
I32
sg9
F0.01932367149758454
sg10
I232
sg11
F0.03125
sg12
I1
sg13
F60.466666666666669
sg14
F15.466666666666667
sg15
I207
sg16
F0.26666666666666666
sg17
F175.90000000000001
sg18
I15
sg19
I47
sg20
I2723
sg21
F11.726666666666667
sg22
VRonnie Brown
p491
sa(dp492
g3
F7
sg4
I13
sg5
F0
sg6
I1693
sg7
F4.8233618233618234
sg8
I11
sg9
F0.037037037037037035
sg10
I77
sg11
F0
sg12
I0
sg13
F99.588235294117652
sg14
F4.5294117647058822
sg15
I351
sg16
F0.76470588235294112
sg17
F266
sg18
I17
sg19
I16
sg20
I15817
sg21
F15.647058823529411
sg22
VAlfred Morris 
p493
sa(dp494
g3
F5.8181818181818183
sg4
I0
sg5
F0
sg6
I641
sg7
F3.4836956521739131
sg8
I33
sg9
F0
sg10
I192
sg11
F0
sg12
I0
sg13
F45.785714285714285
sg14
F13.714285714285714
sg15
I184
sg16
F0
sg17
F116.3
sg18
I14
sg19
I37
sg20
I8145
sg21
F8.3071428571428569
sg22
VMelvin Gordon
p495
sa(dp496
g3
F8.7333333333333325
sg4
I3
sg5
F0
sg6
I608
sg7
F4.78740157480315
sg8
I15
sg9
F0.023622047244094488
sg10
I131
sg11
F0
sg12
I0
sg13
F43.428571428571431
sg14
F9.3571428571428577
sg15
I127
sg16
F0.21428571428571427
sg17
F106.90000000000001
sg18
I14
sg19
I22
sg20
I8152
sg21
F7.6357142857142861
sg22
VFrank Gore
p497
sa.