(lp1
(dp2
S'airYpR'
p3
F9
sS'rushing_touchdowns'
p4
I15
sS'airTDpG'
p5
F0.058823529411764705
sS'rushing_yards'
p6
I908
sS'rushYpA'
p7
F3.1527777777777777
sS'receiving_receptions'
p8
I29
sS'rushTDpA'
p9
F0.052083333333333336
sS'receiving_yards'
p10
I261
sS'airTDpR'
p11
F0.034482758620689655
sS'receiving_touchdowns'
p12
I1
sS'rushYpG'
p13
F53.411764705882355
sS'airYpG'
p14
F15.352941176470589
sS'rushing_attempts'
p15
I288
sS'rushTDpG'
p16
F0.88235294117647056
sS'fantasyPoints'
p17
F241.90000000000001
sS'gamesPlayed'
p18
I17
sS'receiving_targets'
p19
I49
sS'ID'
p20
I8
sS'fantasyPointsPerGame'
p21
F14.229411764705883
sS'name'
p22
VKarim Abdul-Jabbar
p23
sa(dp24
g3
F7.7692307692307692
sg4
I2
sg5
F0
sg6
I317
sg7
F3.6436781609195403
sg8
I13
sg9
F0.022988505747126436
sg10
I101
sg11
F0
sg12
I0
sg13
F63.399999999999999
sg14
F20.199999999999999
sg15
I87
sg16
F0.40000000000000002
sg17
F66.799999999999997
sg18
I5
sg19
I0
sg20
I24632
sg21
F13.359999999999999
sg22
VDon Woods
p25
sa(dp26
g3
F8.9322033898305087
sg4
I1
sg5
F0
sg6
I273
sg7
F5.9347826086956523
sg8
I59
sg9
F0.021739130434782608
sg10
I527
sg11
F0
sg12
I0
sg13
F17.0625
sg14
F32.9375
sg15
I46
sg16
F0.0625
sg17
F145
sg18
I16
sg19
I0
sg20
I24653
sg21
F9.0625
sg22
VKeith Woodside
p27
sa(dp28
g3
F6.4444444444444446
sg4
I4
sg5
F0.0625
sg6
I1203
sg7
F3.8557692307692308
sg8
I18
sg9
F0.01282051282051282
sg10
I116
sg11
F0.055555555555555552
sg12
I1
sg13
F75.1875
sg14
F7.25
sg15
I312
sg16
F0.25
sg17
F179.90000000000001
sg18
I16
sg19
I22
sg20
I8278
sg21
F11.24375
sg22
VRyan Grant
p29
sa(dp30
g3
F13.142857142857142
sg4
I4
sg5
F0
sg6
I857
sg7
F3.4837398373983741
sg8
I28
sg9
F0.016260162601626018
sg10
I368
sg11
F0
sg12
I0
sg13
F53.5625
sg14
F23
sg15
I246
sg16
F0.25
sg17
F174.5
sg18
I16
sg19
I0
sg20
I24665
sg21
F10.90625
sg22
VButch Woolfolk
p31
sa(dp32
g3
F8.6199999999999992
sg4
I12
sg5
F0.1875
sg6
I1115
sg7
F4.0693430656934311
sg8
I50
sg9
F0.043795620437956206
sg10
I431
sg11
F0.059999999999999998
sg12
I3
sg13
F69.6875
sg14
F26.9375
sg15
I274
sg16
F0.75
sg17
F294.60000000000002
sg18
I16
sg19
I63
sg20
I108
sg21
F18.412500000000001
sg22
VJoseph Addai
p33
sa(dp34
g3
F8.75
sg4
I0
sg5
F0
sg6
I418
sg7
F3.834862385321101
sg8
I8
sg9
F0
sg10
I70
sg11
F0
sg12
I0
sg13
F38
sg14
F6.3636363636363633
sg15
I109
sg16
F0
sg17
F56.799999999999997
sg18
I11
sg19
I0
sg20
I24688
sg21
F5.1636363636363631
sg22
VTim Worley
p35
sa(dp36
g3
F10.333333333333334
sg4
I0
sg5
F0.0625
sg6
I673
sg7
F3.3316831683168315
sg8
I12
sg9
F0
sg10
I124
sg11
F0.083333333333333329
sg12
I1
sg13
F42.0625
sg14
F7.75
sg15
I202
sg16
F0
sg17
F97.700000000000003
sg18
I16
sg19
I0
sg20
I8346
sg21
F6.1062500000000002
sg22
VBoyce Green
p37
sa(dp38
g3
F9.8928571428571423
sg4
I1
sg5
F0
sg6
I613
sg7
F5.9514563106796112
sg8
I28
sg9
F0.0097087378640776691
sg10
I277
sg11
F0
sg12
I0
sg13
F40.866666666666667
sg14
F18.466666666666665
sg15
I103
sg16
F0.066666666666666666
sg17
F123
sg18
I15
sg19
I39
sg20
I16548
sg21
F8.1999999999999993
sg22
VJerious Norwood
p39
sa(dp40
g3
F7.6399999999999997
sg4
I3
sg5
F0
sg6
I466
sg7
F3.7886178861788617
sg8
I25
sg9
F0.024390243902439025
sg10
I191
sg11
F0
sg12
I0
sg13
F33.285714285714285
sg14
F13.642857142857142
sg15
I123
sg16
F0.21428571428571427
sg17
F108.7
sg18
I14
sg19
I0
sg20
I16557
sg21
F7.7642857142857142
sg22
VDon Nottingham 
p41
sa(dp42
g3
F8.5
sg4
I2
sg5
F0
sg6
I731
sg7
F4.6265822784810124
sg8
I16
sg9
F0.012658227848101266
sg10
I136
sg11
F0
sg12
I0
sg13
F52.214285714285715
sg14
F9.7142857142857135
sg15
I158
sg16
F0.14285714285714285
sg17
F114.7
sg18
I14
sg19
I0
sg20
I8368
sg21
F8.1928571428571431
sg22
VHarold Green
p43
sa(dp44
g3
F9.3478260869565215
sg4
I5
sg5
F0.083333333333333329
sg6
I611
sg7
F3.658682634730539
sg8
I23
sg9
F0.029940119760479042
sg10
I215
sg11
F0.043478260869565216
sg12
I1
sg13
F50.916666666666664
sg14
F17.916666666666668
sg15
I167
sg16
F0.41666666666666669
sg17
F141.59999999999999
sg18
I12
sg19
I0
sg20
I8414
sg21
F11.799999999999999
sg22
VWoody Green
p45
sa(dp46
g3
F7.5882352941176467
sg4
I3
sg5
F0
sg6
I964
sg7
F4.1913043478260867
sg8
I17
sg9
F0.013043478260869565
sg10
I129
sg11
F0
sg12
I0
sg13
F53.555555555555557
sg14
F7.166666666666667
sg15
I230
sg16
F0.16666666666666666
sg17
F144.30000000000001
sg18
I18
sg19
I25
sg20
I8436
sg21
F8.0166666666666675
sg22
VShonn Greene
p47
sa(dp48
g3
F3.8333333333333335
sg4
I8
sg5
F0
sg6
I1139
sg7
F3.7100977198697067
sg8
I6
sg9
F0.026058631921824105
sg10
I23
sg11
F0
sg12
I0
sg13
F67
sg14
F1.3529411764705883
sg15
I307
sg16
F0.47058823529411764
sg17
F170.19999999999999
sg18
I17
sg19
I12
sg20
I20521
sg21
F10.011764705882353
sg22
VAntowain Smith
p49
sa(dp50
g3
F6.2400000000000002
sg4
I1
sg5
F0.066666666666666666
sg6
I465
sg7
F3.5769230769230771
sg8
I50
sg9
F0.0076923076923076927
sg10
I312
sg11
F0.02
sg12
I1
sg13
F31
sg14
F20.800000000000001
sg15
I130
sg16
F0.066666666666666666
sg17
F139.69999999999999
sg18
I15
sg19
I68
sg20
I24845
sg21
F9.3133333333333326
sg22
VT.J. Yeldon
p51
sa(dp52
g3
F6.6206896551724137
sg4
I3
sg5
F0
sg6
I381
sg7
F3.1487603305785123
sg8
I29
sg9
F0.024793388429752067
sg10
I192
sg11
F0
sg12
I0
sg13
F27.214285714285715
sg14
F13.714285714285714
sg15
I121
sg16
F0.21428571428571427
sg17
F104.3
sg18
I14
sg19
I0
sg20
I8487
sg21
F7.4500000000000002
sg22
VBob Gresham
p53
sa(dp54
g3
F8.5714285714285712
sg4
I0
sg5
F0
sg6
I549
sg7
F4.007299270072993
sg8
I28
sg9
F0
sg10
I240
sg11
F0
sg12
I0
sg13
F45.75
sg14
F20
sg15
I137
sg16
F0
sg17
F106.90000000000001
sg18
I12
sg19
I0
sg20
I8499
sg21
F8.9083333333333332
sg22
VArchie Griffin
p55
sa(dp56
g3
F7.7027027027027026
sg4
I3
sg5
F0
sg6
I473
sg7
F4.6372549019607847
sg8
I37
sg9
F0.029411764705882353
sg10
I285
sg11
F0
sg12
I0
sg13
F29.5625
sg14
F17.8125
sg15
I102
sg16
F0.1875
sg17
F130.80000000000001
sg18
I16
sg19
I0
sg20
I8513
sg21
F8.1750000000000007
sg22
VKeith Griffin
p57
sa(dp58
g3
F8.6341463414634152
sg4
I13
sg5
F0.15789473684210525
sg6
I1480
sg7
F4.5679012345679011
sg8
I82
sg9
F0.040123456790123455
sg10
I708
sg11
F0.036585365853658534
sg12
I3
sg13
F77.89473684210526
sg14
F37.263157894736842
sg15
I324
sg16
F0.68421052631578949
sg17
F396.80000000000001
sg18
I19
sg19
I2
sg20
I323
sg21
F20.88421052631579
sg22
VMarcus Allen
p59
sa(dp60
g3
F9.5882352941176467
sg4
I14
sg5
F0.11764705882352941
sg6
I1249
sg7
F4.52536231884058
sg8
I51
sg9
F0.050724637681159424
sg10
I489
sg11
F0.039215686274509803
sg12
I2
sg13
F73.470588235294116
sg14
F28.764705882352942
sg15
I276
sg16
F0.82352941176470584
sg17
F320.80000000000001
sg18
I17
sg19
I75
sg20
I335
sg21
F18.870588235294118
sg22
VTerry Allen
p61
sa(dp62
g3
F6.375
sg4
I3
sg5
F0
sg6
I473
sg7
F4.5047619047619047
sg8
I8
sg9
F0.028571428571428571
sg10
I51
sg11
F0
sg12
I0
sg13
F52.555555555555557
sg14
F5.666666666666667
sg15
I105
sg16
F0.33333333333333331
sg17
F78.400000000000006
sg18
I9
sg19
I0
sg20
I16769
sg21
F8.7111111111111121
sg22
VChristian Okoye
p63
sa(dp64
g3
F7.2222222222222223
sg4
I4
sg5
F0
sg6
I433
sg7
F3.7652173913043478
sg8
I18
sg9
F0.034782608695652174
sg10
I130
sg11
F0
sg12
I0
sg13
F27.0625
sg14
F8.125
sg15
I115
sg16
F0.25
sg17
F98.299999999999997
sg18
I16
sg19
I0
sg20
I8640
sg21
F6.1437499999999998
sg22
VMike Guman
p65
sa(dp66
g3
F10.887499999999999
sg4
I1
sg5
F0.5
sg6
I442
sg7
F3.4803149606299213
sg8
I80
sg9
F0.007874015748031496
sg10
I871
sg11
F0.10000000000000001
sg12
I8
sg13
F27.625
sg14
F54.4375
sg15
I127
sg16
F0.0625
sg17
F265.30000000000001
sg18
I16
sg19
I0
sg20
I449
sg21
F16.581250000000001
sg22
VGary Anderson 
p67
sa(dp68
g3
F7.6046511627906979
sg4
I6
sg5
F0
sg6
I885
sg7
F3.1834532374100721
sg8
I43
sg9
F0.021582733812949641
sg10
I327
sg11
F0
sg12
I0
sg13
F55.3125
sg14
F20.4375
sg15
I278
sg16
F0.375
sg17
F200.19999999999999
sg18
I16
sg19
I58
sg20
I8657
sg21
F12.512499999999999
sg22
VTodd Gurley
p69
sa(dp70
g3
F5.75
sg4
I4
sg5
F0
sg6
I678
sg7
F3.8742857142857141
sg8
I8
sg9
F0.022857142857142857
sg10
I46
sg11
F0
sg12
I0
sg13
F42.375
sg14
F2.875
sg15
I175
sg16
F0.25
sg17
F104.40000000000001
sg18
I16
sg19
I12
sg20
I473
sg21
F6.5250000000000004
sg22
VMike Anderson 
p71
sa(dp72
g3
F8.5555555555555554
sg4
I9
sg5
F0
sg6
I1352
sg7
F4.4916943521594686
sg8
I36
sg9
F0.029900332225913623
sg10
I308
sg11
F0
sg12
I0
sg13
F84.5
sg14
F19.25
sg15
I301
sg16
F0.5625
sg17
F256
sg18
I16
sg19
I0
sg20
I476
sg21
F16
sg22
VOttis Anderson 
p73
sa(dp74
g3
F9.6538461538461533
sg4
I1
sg5
F0.0625
sg6
I336
sg7
F4.3636363636363633
sg8
I26
sg9
F0.012987012987012988
sg10
I251
sg11
F0.038461538461538464
sg12
I1
sg13
F21
sg14
F15.6875
sg15
I77
sg16
F0.0625
sg17
F96.700000000000003
sg18
I16
sg19
I42
sg20
I17844
sg21
F6.0437500000000002
sg22
VRoosevelt Potts
p75
sa(dp76
g3
F10.289156626506024
sg4
I8
sg5
F0.1875
sg6
I1361
sg7
F4.6931034482758625
sg8
I83
sg9
F0.027586206896551724
sg10
I854
sg11
F0.03614457831325301
sg12
I3
sg13
F85.0625
sg14
F53.375
sg15
I290
sg16
F0.5
sg17
F370.5
sg18
I16
sg19
I105
sg20
I1465
sg21
F23.15625
sg22
VLe'Veon Bell
p77
sa(dp78
g3
F10.272727272727273
sg4
I0
sg5
F0
sg6
I305
sg7
F3.2795698924731185
sg8
I11
sg9
F0
sg10
I113
sg11
F0
sg12
I0
sg13
F25.416666666666668
sg14
F9.4166666666666661
sg15
I93
sg16
F0
sg17
F52.799999999999997
sg18
I12
sg19
I0
sg20
I677
sg21
F4.3999999999999995
sg22
VJosh Ashton
p79
sa(dp80
g3
F7.3114754098360653
sg4
I9
sg5
F0.1875
sg6
I830
sg7
F4.4623655913978491
sg8
I61
sg9
F0.048387096774193547
sg10
I446
sg11
F0.049180327868852458
sg12
I3
sg13
F51.875
sg14
F27.875
sg15
I186
sg16
F0.5625
sg17
F260.60000000000002
sg18
I16
sg19
I0
sg20
I8925
sg21
F16.287500000000001
sg22
VLorenzo Hampton 
p81
sa(dp82
g3
F6.5813953488372094
sg4
I10
sg5
F0
sg6
I1059
sg7
F4.13671875
sg8
I43
sg9
F0.0390625
sg10
I283
sg11
F0
sg12
I0
sg13
F75.642857142857139
sg14
F20.214285714285715
sg15
I256
sg16
F0.7142857142857143
sg17
F237.19999999999999
sg18
I14
sg19
I0
sg20
I8926
sg21
F16.942857142857143
sg22
VRodney Hampton 
p83
sa(dp84
g3
F7
sg4
I1
sg5
F0.22222222222222221
sg6
I277
sg7
F3.5974025974025974
sg8
I37
sg9
F0.012987012987012988
sg10
I259
sg11
F0.054054054054054057
sg12
I2
sg13
F30.777777777777779
sg14
F28.777777777777779
sg15
I77
sg16
F0.1111111111111111
sg17
F108.59999999999999
sg18
I9
sg19
I0
sg20
I17147
sg21
F12.066666666666666
sg22
VRick Parros
p85
sa(dp86
g3
F9.9333333333333336
sg4
I13
sg5
F0
sg6
I1390
sg7
F4.469453376205788
sg8
I15
sg9
F0.041800643086816719
sg10
I149
sg11
F0
sg12
I0
sg13
F99.285714285714292
sg14
F10.642857142857142
sg15
I311
sg16
F0.9285714285714286
sg17
F246.90000000000001
sg18
I14
sg19
I0
sg20
I17270
sg21
F17.635714285714286
sg22
VWalter Payton
p87
sa(dp88
g3
F10.03448275862069
sg4
I2
sg5
F0.071428571428571425
sg6
I625
sg7
F4.2517006802721085
sg8
I29
sg9
F0.013605442176870748
sg10
I291
sg11
F0.034482758620689655
sg12
I1
sg13
F44.642857142857146
sg14
F20.785714285714285
sg15
I147
sg16
F0.14285714285714285
sg17
F138.59999999999999
sg18
I14
sg19
I0
sg20
I9104
sg21
F9.9000000000000004
sg22
VRoland Harper
p89
sa(dp90
g3
F11.823529411764707
sg4
I3
sg5
F0.076923076923076927
sg6
I435
sg7
F3.3461538461538463
sg8
I17
sg9
F0.023076923076923078
sg10
I201
sg11
F0.058823529411764705
sg12
I1
sg13
F33.46153846153846
sg14
F15.461538461538462
sg15
I130
sg16
F0.23076923076923078
sg17
F104.59999999999999
sg18
I13
sg19
I0
sg20
I9116
sg21
F8.046153846153846
sg22
VWillard Harrell
p91
sa(dp92
g3
F6.9000000000000004
sg4
I3
sg5
F0
sg6
I727
sg7
F3.6717171717171717
sg8
I10
sg9
F0.015151515151515152
sg10
I69
sg11
F0
sg12
I0
sg13
F55.92307692307692
sg14
F5.3076923076923075
sg15
I198
sg16
F0.23076923076923078
sg17
F107.59999999999999
sg18
I13
sg19
I0
sg20
I9167
sg21
F8.2769230769230759
sg22
VFranco Harris
p93
sa(dp94
g3
F8.4230769230769234
sg4
I14
sg5
F0.11764705882352941
sg6
I658
sg7
F4.7681159420289854
sg8
I26
sg9
F0.10144927536231885
sg10
I219
sg11
F0.076923076923076927
sg12
I2
sg13
F38.705882352941174
sg14
F12.882352941176471
sg15
I138
sg16
F0.82352941176470584
sg17
F209.69999999999999
sg18
I17
sg19
I36
sg20
I1035
sg21
F12.335294117647058
sg22
VMarion Barber
p95
sa(dp96
g3
F9.2666666666666675
sg4
I5
sg5
F0.0625
sg6
I694
sg7
F4.5657894736842106
sg8
I15
sg9
F0.032894736842105261
sg10
I139
sg11
F0.066666666666666666
sg12
I1
sg13
F43.375
sg14
F8.6875
sg15
I152
sg16
F0.3125
sg17
F134.30000000000001
sg18
I16
sg19
I23
sg20
I1075
sg21
F8.3937500000000007
sg22
VKevan Barlow
p97
sa(dp98
g3
F5.9523809523809526
sg4
I12
sg5
F0
sg6
I1843
sg7
F4.8120104438642297
sg8
I21
sg9
F0.031331592689295036
sg10
I125
sg11
F0
sg12
I0
sg13
F108.41176470588235
sg14
F7.3529411764705879
sg15
I383
sg16
F0.70588235294117652
sg17
F289.80000000000001
sg18
I17
sg19
I39
sg20
I17463
sg21
F17.047058823529412
sg22
VAdrian Peterson
p99
sa(dp100
g3
F3.5454545454545454
sg4
I8
sg5
F0
sg6
I677
sg7
F3.3681592039800994
sg8
I11
sg9
F0.039800995024875621
sg10
I39
sg11
F0
sg12
I0
sg13
F56.416666666666664
sg14
F3.25
sg15
I201
sg16
F0.66666666666666663
sg17
F130.59999999999999
sg18
I12
sg19
I19
sg20
I17547
sg21
F10.883333333333333
sg22
VLawrence Phillips
p101
sa(dp102
g3
F5.2000000000000002
sg4
I2
sg5
F0
sg6
I436
sg7
F2.8684210526315788
sg8
I20
sg9
F0.013157894736842105
sg10
I104
sg11
F0
sg12
I0
sg13
F27.25
sg14
F6.5
sg15
I152
sg16
F0.125
sg17
F86
sg18
I16
sg19
I25
sg20
I17587
sg21
F5.375
sg22
VBernard Pierce
p103
sa(dp104
g3
F6.333333333333333
sg4
I7
sg5
F0
sg6
I951
sg7
F3.8975409836065573
sg8
I18
sg9
F0.028688524590163935
sg10
I114
sg11
F0
sg12
I0
sg13
F59.4375
sg14
F7.125
sg15
I244
sg16
F0.4375
sg17
F166.5
sg18
I16
sg19
I21
sg20
I1248
sg21
F10.40625
sg22
VMario Bates
p105
sa(dp106
g3
F8.2903225806451619
sg4
I4
sg5
F0.125
sg6
I595
sg7
F3.6280487804878048
sg8
I31
sg9
F0.024390243902439025
sg10
I257
sg11
F0.064516129032258063
sg12
I2
sg13
F37.1875
sg14
F16.0625
sg15
I164
sg16
F0.25
sg17
F152.19999999999999
sg18
I16
sg19
I0
sg20
I9501
sg21
F9.5124999999999993
sg22
VHerman Heard
p107
sa(dp108
g3
F8.3076923076923084
sg4
I14
sg5
F0
sg6
I1659
sg7
F5.4039087947882738
sg8
I39
sg9
F0.045602605863192182
sg10
I324
sg11
F0
sg12
I0
sg13
F118.5
sg14
F23.142857142857142
sg15
I307
sg16
F1
sg17
F321.30000000000001
sg18
I14
sg19
I55
sg20
I17821
sg21
F22.949999999999999
sg22
VClinton Portis
p109
sa(dp110
g3
F9.1666666666666661
sg4
I3
sg5
F0
sg6
I758
sg7
F5.0198675496688745
sg8
I18
sg9
F0.019867549668874173
sg10
I165
sg11
F0
sg12
I0
sg13
F58.307692307692307
sg14
F12.692307692307692
sg15
I151
sg16
F0.23076923076923078
sg17
F128.30000000000001
sg18
I13
sg19
I0
sg20
I17829
sg21
F9.8692307692307697
sg22
VDickie Post
p111
sa(dp112
g3
F9.931034482758621
sg4
I8
sg5
F0.0625
sg6
I883
sg7
F3.9596412556053813
sg8
I58
sg9
F0.035874439461883408
sg10
I576
sg11
F0.017241379310344827
sg12
I1
sg13
F55.1875
sg14
F36
sg15
I223
sg16
F0.5
sg17
F257.89999999999998
sg18
I16
sg19
I0
sg20
I1452
sg21
F16.118749999999999
sg22
VGreg Bell
p113
sa(dp114
g3
F7.8571428571428568
sg4
I3
sg5
F0
sg6
I520
sg7
F4.5614035087719298
sg8
I7
sg9
F0.026315789473684209
sg10
I55
sg11
F0
sg12
I0
sg13
F47.272727272727273
sg14
F5
sg15
I114
sg16
F0.27272727272727271
sg17
F82.5
sg18
I11
sg19
I12
sg20
I9653
sg21
F7.5
sg22
VDerrick Henry 
p115
sa(dp116
g3
F7.1860465116279073
sg4
I13
sg5
F0.0625
sg6
I1438
sg7
F4.4246153846153842
sg8
I43
sg9
F0.040000000000000001
sg10
I309
sg11
F0.023255813953488372
sg12
I1
sg13
F89.875
sg14
F19.3125
sg15
I325
sg16
F0.8125
sg17
F301.69999999999999
sg18
I16
sg19
I59
sg20
I9665
sg21
F18.856249999999999
sg22
VTravis Henry 
p117
sa(dp118
g3
F8.1333333333333329
sg4
I6
sg5
F0
sg6
I679
sg7
F3.6702702702702701
sg8
I15
sg9
F0.032432432432432434
sg10
I122
sg11
F0
sg12
I0
sg13
F56.583333333333336
sg14
F10.166666666666666
sg15
I185
sg16
F0.5
sg17
F131.09999999999999
sg18
I12
sg19
I0
sg20
I1477
sg21
F10.924999999999999
sg22
VRicky Bell
p119
sa(dp120
g3
F9.5555555555555554
sg4
I6
sg5
F0
sg6
I378
sg7
F3.098360655737705
sg8
I9
sg9
F0.049180327868852458
sg10
I86
sg11
F0
sg12
I0
sg13
F27
sg14
F6.1428571428571432
sg15
I122
sg16
F0.42857142857142855
sg17
F91.400000000000006
sg18
I14
sg19
I0
sg20
I12543
sg21
F6.5285714285714294
sg22
VDoug Kotar
p121
sa(dp122
g3
F9.486486486486486
sg4
I5
sg5
F0.0625
sg6
I1296
sg7
F5.0823529411764703
sg8
I37
sg9
F0.019607843137254902
sg10
I351
sg11
F0.027027027027027029
sg12
I1
sg13
F81
sg14
F21.9375
sg15
I255
sg16
F0.3125
sg17
F237.69999999999999
sg18
I16
sg19
I41
sg20
I1545
sg21
F14.856249999999999
sg22
VMichael Bennett
p123
sa(dp124
g3
F9.6666666666666661
sg4
I3
sg5
F0
sg6
I303
sg7
F2.9705882352941178
sg8
I12
sg9
F0.029411764705882353
sg10
I116
sg11
F0
sg12
I0
sg13
F25.25
sg14
F9.6666666666666661
sg15
I102
sg16
F0.25
sg17
F71.900000000000006
sg18
I12
sg19
I14
sg20
I9786
sg21
F5.9916666666666671
sg22
VSkip Hicks
p125
sa(dp126
g3
F7.7450980392156863
sg4
I5
sg5
F0.14285714285714285
sg6
I686
sg7
F4.0116959064327489
sg8
I51
sg9
F0.029239766081871343
sg10
I395
sg11
F0.039215686274509803
sg12
I2
sg13
F49
sg14
F28.214285714285715
sg15
I171
sg16
F0.35714285714285715
sg17
F201.09999999999999
sg18
I14
sg19
I68
sg20
I1603
sg21
F14.364285714285714
sg22
VGiovani Bernard
p127
sa(dp128
g3
F6.8985507246376816
sg4
I10
sg5
F0
sg6
I704
sg7
F4.5128205128205128
sg8
I69
sg9
F0.064102564102564097
sg10
I476
sg11
F0
sg12
I0
sg13
F39.111111111111114
sg14
F26.444444444444443
sg15
I156
sg16
F0.55555555555555558
sg17
F247
sg18
I18
sg19
I87
sg20
I9812
sg21
F13.722222222222221
sg22
VTim Hightower
p129
sa(dp130
g3
F7.3076923076923075
sg4
I4
sg5
F0
sg6
I577
sg7
F3.7712418300653594
sg8
I13
sg9
F0.026143790849673203
sg10
I95
sg11
F0
sg12
I0
sg13
F44.384615384615387
sg14
F7.3076923076923075
sg15
I153
sg16
F0.30769230769230771
sg17
F104.2
sg18
I13
sg19
I0
sg20
I9827
sg21
F8.0153846153846153
sg22
VCalvin Hill
p131
sa(dp132
g3
F14.052631578947368
sg4
I4
sg5
F0.066666666666666666
sg6
I891
sg7
F4.0871559633027523
sg8
I19
sg9
F0.01834862385321101
sg10
I267
sg11
F0.052631578947368418
sg12
I1
sg13
F59.399999999999999
sg14
F17.800000000000001
sg15
I218
sg16
F0.26666666666666666
sg17
F164.80000000000001
sg18
I15
sg19
I0
sg20
I1650
sg21
F10.986666666666668
sg22
VJim Bertelsen
p133
sa(dp134
g3
F6.4285714285714288
sg4
I1
sg5
F0
sg6
I667
sg7
F4.3032258064516133
sg8
I7
sg9
F0.0064516129032258064
sg10
I45
sg11
F0
sg12
I0
sg13
F41.6875
sg14
F2.8125
sg15
I155
sg16
F0.0625
sg17
F84.200000000000003
sg18
I16
sg19
I14
sg20
I9845
sg21
F5.2625000000000002
sg22
VGreg Hill
p135
sa(dp136
g3
F5.8888888888888893
sg4
I12
sg5
F0.058823529411764705
sg6
I844
sg7
F3.5914893617021275
sg8
I18
sg9
F0.05106382978723404
sg10
I106
sg11
F0.055555555555555552
sg12
I1
sg13
F49.647058823529413
sg14
F6.2352941176470589
sg15
I235
sg16
F0.70588235294117652
sg17
F191
sg18
I17
sg19
I23
sg20
I9856
sg21
F11.235294117647058
sg22
VJeremy Hill
p137
sa(dp138
g3
F10.62962962962963
sg4
I2
sg5
F0.16666666666666666
sg6
I390
sg7
F4.6428571428571432
sg8
I27
sg9
F0.023809523809523808
sg10
I287
sg11
F0.037037037037037035
sg12
I1
sg13
F65
sg14
F47.833333333333336
sg15
I84
sg16
F0.33333333333333331
sg17
F112.7
sg18
I6
sg19
I40
sg20
I1665
sg21
F18.783333333333335
sg22
VJahvid Best
p139
sa(dp140
g3
F9.4516129032258061
sg4
I3
sg5
F0.0625
sg6
I1025
sg7
F3.2131661442006267
sg8
I31
sg9
F0.0094043887147335428
sg10
I293
sg11
F0.032258064516129031
sg12
I1
sg13
F64.0625
sg14
F18.3125
sg15
I319
sg16
F0.1875
sg17
F186.80000000000001
sg18
I16
sg19
I45
sg20
I1679
sg21
F11.675000000000001
sg22
VJerome Bettis
p141
sa(dp142
g3
F11.16
sg4
I7
sg5
F0.076923076923076927
sg6
I547
sg7
F4.1755725190839694
sg8
I25
sg9
F0.053435114503816793
sg10
I279
sg11
F0.040000000000000001
sg12
I1
sg13
F42.07692307692308
sg14
F21.46153846153846
sg15
I131
sg16
F0.53846153846153844
sg17
F155.59999999999999
sg18
I13
sg19
I0
sg20
I9904
sg21
F11.969230769230769
sg22
VDalton Hilliard
p143
sa(dp144
g3
F9.545454545454545
sg4
I1
sg5
F0.066666666666666666
sg6
I406
sg7
F4.3191489361702127
sg8
I33
sg9
F0.010638297872340425
sg10
I315
sg11
F0.030303030303030304
sg12
I1
sg13
F27.066666666666666
sg14
F21
sg15
I94
sg16
F0.066666666666666666
sg17
F117.09999999999999
sg18
I15
sg19
I45
sg20
I18152
sg21
F7.8066666666666666
sg22
VBobby Rainey
p145
sa(dp146
g3
F6.2105263157894735
sg4
I0
sg5
F0.083333333333333329
sg6
I546
sg7
F3.5225806451612902
sg8
I19
sg9
F0
sg10
I118
sg11
F0.052631578947368418
sg12
I1
sg13
F45.5
sg14
F9.8333333333333339
sg15
I155
sg16
F0
sg17
F91.400000000000006
sg18
I12
sg19
I0
sg20
I10021
sg21
F7.6166666666666671
sg22
VMike Hogan 
p147
sa(dp148
g3
F6.9285714285714288
sg4
I4
sg5
F0
sg6
I544
sg7
F3.7006802721088436
sg8
I14
sg9
F0.027210884353741496
sg10
I97
sg11
F0
sg12
I0
sg13
F49.454545454545453
sg14
F8.8181818181818183
sg15
I147
sg16
F0.36363636363636365
sg17
F102.09999999999999
sg18
I11
sg19
I19
sg20
I18248
sg21
F9.2818181818181813
sg22
VThomas Rawls
p149
sa(dp150
g3
F9.8666666666666671
sg4
I5
sg5
F0
sg6
I781
sg7
F4.2445652173913047
sg8
I15
sg9
F0.02717391304347826
sg10
I148
sg11
F0
sg12
I0
sg13
F55.785714285714285
sg14
F10.571428571428571
sg15
I184
sg16
F0.35714285714285715
sg17
F137.90000000000001
sg18
I14
sg19
I25
sg20
I1890
sg21
F9.8499999999999996
sg22
VLeGarrette Blount
p151
sa(dp152
g3
F7.2666666666666666
sg4
I2
sg5
F0.0625
sg6
I797
sg7
F3.9849999999999999
sg8
I15
sg9
F0.01
sg10
I109
sg11
F0.066666666666666666
sg12
I1
sg13
F49.8125
sg14
F6.8125
sg15
I200
sg16
F0.125
sg17
F123.59999999999999
sg18
I16
sg19
I16
sg20
I1894
sg21
F7.7249999999999996
sg22
VAlfred Blue
p153
sa(dp154
g3
F6.6470588235294121
sg4
I4
sg5
F0.058823529411764705
sg6
I581
sg7
F2.9343434343434343
sg8
I17
sg9
F0.020202020202020204
sg10
I113
sg11
F0.058823529411764705
sg12
I1
sg13
F34.176470588235297
sg14
F6.6470588235294121
sg15
I198
sg16
F0.23529411764705882
sg17
F116.40000000000001
sg18
I17
sg19
I23
sg20
I10118
sg21
F6.8470588235294123
sg22
VDarick Holmes
p155
sa(dp156
g3
F9.6981132075471699
sg4
I1
sg5
F0
sg6
I358
sg7
F4.904109589041096
sg8
I53
sg9
F0.013698630136986301
sg10
I514
sg11
F0
sg12
I0
sg13
F22.375
sg14
F32.125
sg15
I73
sg16
F0.0625
sg17
F146.19999999999999
sg18
I16
sg19
I74
sg20
I11246
sg21
F9.1374999999999993
sg22
VDuke Johnson
p157
sa(dp158
g3
F10.724137931034482
sg4
I3
sg5
F0.17647058823529413
sg6
I633
sg7
F3.6379310344827585
sg8
I29
sg9
F0.017241379310344827
sg10
I311
sg11
F0.10344827586206896
sg12
I3
sg13
F37.235294117647058
sg14
F18.294117647058822
sg15
I174
sg16
F0.17647058823529413
sg17
F159.40000000000001
sg18
I17
sg19
I0
sg20
I10136
sg21
F9.3764705882352946
sg22
VRobert Holmes
p159
sa(dp160
g3
F9.3829787234042552
sg4
I4
sg5
F0.071428571428571425
sg6
I802
sg7
F4.9506172839506171
sg8
I47
sg9
F0.024691358024691357
sg10
I441
sg11
F0.021276595744680851
sg12
I1
sg13
F57.285714285714285
sg14
F31.5
sg15
I162
sg16
F0.2857142857142857
sg17
F201.30000000000001
sg18
I14
sg19
I0
sg20
I24906
sg21
F14.37857142857143
sg22
VRickey Young
p161
sa(dp162
g3
F10.0625
sg4
I5
sg5
F0.0625
sg6
I1053
sg7
F5.1116504854368934
sg8
I48
sg9
F0.024271844660194174
sg10
I483
sg11
F0.020833333333333332
sg12
I1
sg13
F65.8125
sg14
F30.1875
sg15
I206
sg16
F0.3125
sg17
F237.59999999999999
sg18
I16
sg19
I0
sg20
I18367
sg21
F14.85
sg22
VTony Reed
p163
sa(dp164
g3
F17.083333333333332
sg4
I10
sg5
F0.375
sg6
I442
sg7
F3.7142857142857144
sg8
I12
sg9
F0.084033613445378158
sg10
I205
sg11
F0.25
sg12
I3
sg13
F55.25
sg14
F25.625
sg15
I119
sg16
F1.25
sg17
F154.69999999999999
sg18
I8
sg19
I0
sg20
I2020
sg21
F19.337499999999999
sg22
VEmerson Boozer
p165
sa(dp166
g3
F7.083333333333333
sg4
I2
sg5
F0.10000000000000001
sg6
I262
sg7
F2.7010309278350517
sg8
I24
sg9
F0.020618556701030927
sg10
I170
sg11
F0.041666666666666664
sg12
I1
sg13
F26.199999999999999
sg14
F17
sg15
I97
sg16
F0.20000000000000001
sg17
F85.200000000000003
sg18
I10
sg19
I0
sg20
I2076
sg21
F8.5199999999999996
sg22
VLee Bouggess
p167
sa(dp168
g3
F5.6875
sg4
I5
sg5
F0
sg6
I847
sg7
F4.2562814070351758
sg8
I16
sg9
F0.025125628140703519
sg10
I91
sg11
F0
sg12
I0
sg13
F77
sg14
F8.2727272727272734
sg15
I199
sg16
F0.45454545454545453
sg17
F139.80000000000001
sg18
I11
sg19
I23
sg20
I10295
sg21
F12.709090909090911
sg22
VJordan Howard
p169
sa(dp170
g3
F6.2666666666666666
sg4
I1
sg5
F0.0625
sg6
I357
sg7
F3.3055555555555554
sg8
I30
sg9
F0.0092592592592592587
sg10
I188
sg11
F0.033333333333333333
sg12
I1
sg13
F22.3125
sg14
F11.75
sg15
I108
sg16
F0.0625
sg17
F96.5
sg18
I16
sg19
I0
sg20
I10311
sg21
F6.03125
sg22
VWilliam Howard
p171
sa(dp172
g3
F7.8571428571428568
sg4
I11
sg5
F0
sg6
I1207
sg7
F3.6355421686746987
sg8
I14
sg9
F0.03313253012048193
sg10
I110
sg11
F0
sg12
I0
sg13
F75.4375
sg14
F6.875
sg15
I332
sg16
F0.6875
sg17
F211.69999999999999
sg18
I16
sg19
I29
sg20
I18535
sg21
F13.231249999999999
sg22
VErrict Rhett
p173
sa(dp174
g3
F7.916666666666667
sg4
I9
sg5
F0.17647058823529413
sg6
I754
sg7
F3.8865979381443299
sg8
I24
sg9
F0.046391752577319589
sg10
I190
sg11
F0.125
sg12
I3
sg13
F44.352941176470587
sg14
F11.176470588235293
sg15
I194
sg16
F0.52941176470588236
sg17
F190.40000000000001
sg18
I17
sg19
I34
sg20
I362
sg21
F11.200000000000001
sg22
VMike Alstott
p175
sa(dp176
g3
F8.7586206896551726
sg4
I9
sg5
F0.055555555555555552
sg6
I1565
sg7
F5.4152249134948098
sg8
I87
sg9
F0.031141868512110725
sg10
I762
sg11
F0.011494252873563218
sg12
I1
sg13
F86.944444444444443
sg14
F42.333333333333336
sg15
I289
sg16
F0.5
sg17
F379.69999999999999
sg18
I18
sg19
I114
sg20
I18567
sg21
F21.094444444444445
sg22
VRay Rice
p177
sa(dp178
g3
F9.0285714285714285
sg4
I3
sg5
F0.055555555555555552
sg6
I564
sg7
F2.9375
sg8
I35
sg9
F0.015625
sg10
I316
sg11
F0.028571428571428571
sg12
I1
sg13
F31.333333333333332
sg14
F17.555555555555557
sg15
I192
sg16
F0.16666666666666666
sg17
F147
sg18
I18
sg19
I52
sg20
I18630
sg21
F8.1666666666666661
sg22
VTrent Richardson 
p179
sa(dp180
g3
F10.952380952380953
sg4
I7
sg5
F0.083333333333333329
sg6
I944
sg7
F4.5603864734299515
sg8
I21
sg9
F0.033816425120772944
sg10
I230
sg11
F0.047619047619047616
sg12
I1
sg13
F78.666666666666671
sg14
F19.166666666666668
sg15
I207
sg16
F0.58333333333333337
sg17
F186.40000000000001
sg18
I12
sg19
I0
sg20
I18676
sg21
F15.533333333333333
sg22
VJohn Riggins
p181
sa(dp182
g3
F8.764705882352942
sg4
I8
sg5
F0
sg6
I437
sg7
F4.3700000000000001
sg8
I17
sg9
F0.080000000000000002
sg10
I149
sg11
F0
sg12
I0
sg13
F31.214285714285715
sg14
F10.642857142857142
sg15
I100
sg16
F0.5714285714285714
sg17
F123.59999999999999
sg18
I14
sg19
I0
sg20
I18679
sg21
F8.8285714285714274
sg22
VGerald Riggs
p183
sa(dp184
g3
F4.833333333333333
sg4
I5
sg5
F0
sg6
I602
sg7
F3.858974358974359
sg8
I6
sg9
F0.032051282051282048
sg10
I29
sg11
F0
sg12
I0
sg13
F37.625
sg14
F1.8125
sg15
I156
sg16
F0.3125
sg17
F99.099999999999994
sg18
I16
sg19
I10
sg20
I10635
sg21
F6.1937499999999996
sg22
VMark Ingram
p185
sa(dp186
g3
F12.380952380952381
sg4
I8
sg5
F0.066666666666666666
sg6
I1036
sg7
F3.6097560975609757
sg8
I21
sg9
F0.027874564459930314
sg10
I260
sg11
F0.047619047619047616
sg12
I1
sg13
F69.066666666666663
sg14
F17.333333333333332
sg15
I287
sg16
F0.53333333333333333
sg17
F204.59999999999999
sg18
I15
sg19
I0
sg20
I2456
sg21
F13.639999999999999
sg22
VJohn Brockington 
p187
sa(dp188
g3
F5.9375
sg4
I7
sg5
F0
sg6
I459
sg7
F4.935483870967742
sg8
I16
sg9
F0.075268817204301078
sg10
I95
sg11
F0
sg12
I0
sg13
F41.727272727272727
sg14
F8.6363636363636367
sg15
I93
sg16
F0.63636363636363635
sg17
F113.40000000000001
sg18
I11
sg19
I0
sg20
I2497
sg21
F10.30909090909091
sg22
VJames Brooks
p189
sa(dp190
g3
F5.2307692307692308
sg4
I2
sg5
F0
sg6
I297
sg7
F2.9700000000000002
sg8
I13
sg9
F0.02
sg10
I68
sg11
F0
sg12
I0
sg13
F22.846153846153847
sg14
F5.2307692307692308
sg15
I100
sg16
F0.15384615384615385
sg17
F61.5
sg18
I13
sg19
I21
sg20
I2508
sg21
F4.7307692307692308
sg22
VReggie Brooks
p191
sa(dp192
g3
I0
sg4
I1
sg5
F0
sg6
I444
sg7
F4.3960396039603964
sg8
I0
sg9
F0.0099009900990099011
sg10
I0
sg11
I0
sg12
I0
sg13
F55.5
sg14
F0
sg15
I101
sg16
F0.125
sg17
F50.399999999999999
sg18
I8
sg19
I0
sg20
I10701
sg21
F6.2999999999999998
sg22
VChris Ivory
p193
sa(dp194
g3
F5.2000000000000002
sg4
I4
sg5
F0
sg6
I489
sg7
F3.0562499999999999
sg8
I20
sg9
F0.025000000000000001
sg10
I104
sg11
F0
sg12
I0
sg13
F34.928571428571431
sg14
F7.4285714285714288
sg15
I160
sg16
F0.2857142857142857
sg17
F103.3
sg18
I14
sg19
I0
sg20
I18900
sg21
F7.3785714285714281
sg22
VPaul Robinson
p195
sa(dp196
g3
F9.7272727272727266
sg4
I3
sg5
F0.0625
sg6
I489
sg7
F3.3493150684931505
sg8
I44
sg9
F0.020547945205479451
sg10
I428
sg11
F0.022727272727272728
sg12
I1
sg13
F30.5625
sg14
F26.75
sg15
I146
sg16
F0.1875
sg17
F159.69999999999999
sg18
I16
sg19
I57
sg20
I2601
sg21
F9.9812499999999993
sg22
VDerek Brown
p197
sa(dp198
g3
F10.25
sg4
I2
sg5
F0
sg6
I497
sg7
F3.8527131782945738
sg8
I20
sg9
F0.015503875968992248
sg10
I205
sg11
F0
sg12
I0
sg13
F38.230769230769234
sg14
F15.76923076923077
sg15
I129
sg16
F0.15384615384615385
sg17
F102.2
sg18
I13
sg19
I28
sg20
I2605
sg21
F7.861538461538462
sg22
VDonald Brown
p199
sa(dp200
g3
F5.25
sg4
I3
sg5
F0
sg6
I535
sg7
F4.3852459016393439
sg8
I4
sg9
F0.024590163934426229
sg10
I21
sg11
F0
sg12
I0
sg13
F89.166666666666671
sg14
F3.5
sg15
I122
sg16
F0.5
sg17
F77.599999999999994
sg18
I6
sg19
I0
sg20
I18995
sg21
F12.933333333333332
sg22
VGeorge Rogers
p201
sa(dp202
g3
F13.449999999999999
sg4
I10
sg5
F0.076923076923076927
sg6
I876
sg7
F3.7435897435897436
sg8
I20
sg9
F0.042735042735042736
sg10
I269
sg11
F0.050000000000000003
sg12
I1
sg13
F67.384615384615387
sg14
F20.692307692307693
sg15
I234
sg16
F0.76923076923076927
sg17
F200.5
sg18
I13
sg19
I0
sg20
I19029
sg21
F15.423076923076923
sg22
VJohnny Roland
p203
sa(dp204
g3
F7.441860465116279
sg4
I8
sg5
F0.13333333333333333
sg6
I1046
sg7
F4.1181102362204722
sg8
I43
sg9
F0.031496062992125984
sg10
I320
sg11
F0.046511627906976744
sg12
I2
sg13
F69.733333333333334
sg14
F21.333333333333332
sg15
I254
sg16
F0.53333333333333333
sg17
F239.59999999999999
sg18
I15
sg19
I55
sg20
I10839
sg21
F15.973333333333333
sg22
VSteven Jackson
p205
sa(dp206
g3
F9.2162162162162158
sg4
I5
sg5
F0.15384615384615385
sg6
I1125
sg7
F4.7468354430379751
sg8
I37
sg9
F0.021097046413502109
sg10
I341
sg11
F0.054054054054054057
sg12
I2
sg13
F86.538461538461533
sg14
F26.23076923076923
sg15
I237
sg16
F0.38461538461538464
sg17
F225.59999999999999
sg18
I13
sg19
I0
sg20
I2667
sg21
F17.353846153846153
sg22
VLarry Brown
p207
sa(dp208
g3
F6.333333333333333
sg4
I7
sg5
F0
sg6
I1202
sg7
F4.1736111111111107
sg8
I24
sg9
F0.024305555555555556
sg10
I152
sg11
F0
sg12
I0
sg13
F80.13333333333334
sg14
F10.133333333333333
sg15
I288
sg16
F0.46666666666666667
sg17
F201.40000000000001
sg18
I15
sg19
I0
sg20
I10455
sg21
F13.426666666666668
sg22
VBobby Humphrey
p209
sa(dp210
g3
F9.5
sg4
I13
sg5
F0.29411764705882354
sg6
I1816
sg7
F4.4509803921568629
sg8
I66
sg9
F0.031862745098039214
sg10
I627
sg11
F0.07575757575757576
sg12
I5
sg13
F106.82352941176471
sg14
F36.882352941176471
sg15
I408
sg16
F0.76470588235294112
sg17
F418.30000000000001
sg18
I17
sg19
I91
sg20
I10902
sg21
F24.605882352941176
sg22
VEdgerrin James
p211
sa(dp212
g3
F9.8181818181818183
sg4
I9
sg5
F0.11764705882352941
sg6
I926
sg7
F4.1339285714285712
sg8
I66
sg9
F0.040178571428571432
sg10
I648
sg11
F0.030303030303030304
sg12
I2
sg13
F54.470588235294116
sg14
F38.117647058823529
sg15
I224
sg16
F0.52941176470588236
sg17
F289.39999999999998
sg18
I17
sg19
I0
sg20
I2739
sg21
F17.023529411764706
sg22
VTed Brown
p213
sa(dp214
g3
F7.5
sg4
I4
sg5
F0
sg6
I662
sg7
F3.3266331658291457
sg8
I24
sg9
F0.020100502512562814
sg10
I180
sg11
F0
sg12
I0
sg13
F50.92307692307692
sg14
F13.846153846153847
sg15
I199
sg16
F0.30769230769230771
sg17
F132.19999999999999
sg18
I13
sg19
I0
sg20
I19191
sg21
F10.169230769230769
sg22
VMike Rozier
p215
sa(dp216
g3
F11.604166666666666
sg4
I1
sg5
F0.42857142857142855
sg6
I455
sg7
F5
sg8
I48
sg9
F0.01098901098901099
sg10
I557
sg11
F0.125
sg12
I6
sg13
F32.5
sg14
F39.785714285714285
sg15
I91
sg16
F0.071428571428571425
sg17
F191.19999999999999
sg18
I14
sg19
I0
sg20
I2855
sg21
F13.657142857142857
sg22
VKelvin Bryant
p217
sa(dp218
g3
F2.1818181818181817
sg4
I2
sg5
F0
sg6
I390
sg7
F3.1707317073170733
sg8
I11
sg9
F0.016260162601626018
sg10
I24
sg11
F0
sg12
I0
sg13
F35.454545454545453
sg14
F2.1818181818181817
sg15
I123
sg16
F0.18181818181818182
sg17
F64.400000000000006
sg18
I11
sg19
I14
sg20
I19284
sg21
F5.8545454545454554
sg22
VLeonard Russell
p219
sa(dp220
g3
F9.1600000000000001
sg4
I8
sg5
F0.15384615384615385
sg6
I741
sg7
F4.875
sg8
I25
sg9
F0.052631578947368418
sg10
I229
sg11
F0.080000000000000002
sg12
I2
sg13
F57
sg14
F17.615384615384617
sg15
I152
sg16
F0.61538461538461542
sg17
F182
sg18
I13
sg19
I0
sg20
I2937
sg21
F14
sg22
VNorm Bulaich
p221
sa(dp222
g3
F6.3499999999999996
sg4
I1
sg5
F0.14285714285714285
sg6
I446
sg7
F3.4307692307692306
sg8
I20
sg9
F0.0076923076923076927
sg10
I127
sg11
F0.10000000000000001
sg12
I2
sg13
F31.857142857142858
sg14
F9.0714285714285712
sg15
I130
sg16
F0.071428571428571425
sg17
F95.299999999999997
sg18
I14
sg19
I0
sg20
I2941
sg21
F6.8071428571428569
sg22
VRonnie Bull
p223
sa(dp224
g3
F1.3333333333333333
sg4
I2
sg5
F0
sg6
I415
sg7
F3.7387387387387387
sg8
I12
sg9
F0.018018018018018018
sg10
I16
sg11
F0
sg12
I0
sg13
F31.923076923076923
sg14
F1.2307692307692308
sg15
I111
sg16
F0.15384615384615385
sg17
F67.099999999999994
sg18
I13
sg19
I0
sg20
I11136
sg21
F5.161538461538461
sg22
VBilly Joe
p225
sa(dp226
g3
F6.2857142857142856
sg4
I3
sg5
F0.083333333333333329
sg6
I496
sg7
F3.4685314685314683
sg8
I7
sg9
F0.02097902097902098
sg10
I44
sg11
F0.14285714285714285
sg12
I1
sg13
F41.333333333333336
sg14
F3.6666666666666665
sg15
I143
sg16
F0.25
sg17
F85
sg18
I12
sg19
I8
sg20
I19376
sg21
F7.083333333333333
sg22
VRashaan Salaam 
p227
sa(dp228
g3
F10.06
sg4
I14
sg5
F0.125
sg6
I2006
sg7
F5.6033519553072626
sg8
I50
sg9
F0.039106145251396648
sg10
I503
sg11
F0.040000000000000001
sg12
I2
sg13
F125.375
sg14
F31.4375
sg15
I358
sg16
F0.875
sg17
F396.89999999999998
sg18
I16
sg19
I71
sg20
I11208
sg21
F24.806249999999999
sg22
VChris Johnson 
p229
sa(dp230
g3
F8
sg4
I6
sg5
F0
sg6
I350
sg7
F3.5353535353535355
sg8
I6
sg9
F0.060606060606060608
sg10
I48
sg11
F0
sg12
I0
sg13
F25
sg14
F3.4285714285714284
sg15
I99
sg16
F0.42857142857142855
sg17
F81.799999999999997
sg18
I14
sg19
I0
sg20
I20986
sg21
F5.8428571428571425
sg22
VTim Spencer
p231
sa(dp232
g3
F10.987500000000001
sg4
I16
sg5
F0.25
sg6
I1239
sg7
F4.2286689419795218
sg8
I80
sg9
F0.054607508532423209
sg10
I879
sg11
F0.050000000000000003
sg12
I4
sg13
F77.4375
sg14
F54.9375
sg15
I293
sg16
F1
sg17
F411.80000000000001
sg18
I16
sg19
I120
sg20
I11230
sg21
F25.737500000000001
sg22
VDavid Johnson
p233
sa(dp234
g3
F13.333333333333334
sg4
I13
sg5
F0.1875
sg6
I1304
sg7
F5.113725490196078
sg8
I36
sg9
F0.050980392156862744
sg10
I480
sg11
F0.083333333333333329
sg12
I3
sg13
F81.5
sg14
F30
sg15
I255
sg16
F0.8125
sg17
F310.39999999999998
sg18
I16
sg19
I0
sg20
I19437
sg21
F19.399999999999999
sg22
VBarry Sanders 
p235
sa(dp236
g3
F6.1764705882352944
sg4
I3
sg5
F0
sg6
I589
sg7
F4.7886178861788622
sg8
I17
sg9
F0.024390243902439025
sg10
I105
sg11
F0
sg12
I0
sg13
F36.8125
sg14
F6.5625
sg15
I123
sg16
F0.1875
sg17
F104.40000000000001
sg18
I16
sg19
I19
sg20
I3113
sg21
F6.5250000000000004
sg22
VMichael Bush
p237
sa(dp238
g3
F5.7123287671232879
sg4
I4
sg5
F0.16666666666666666
sg6
I581
sg7
F3.7006369426751591
sg8
I73
sg9
F0.025477707006369428
sg10
I417
sg11
F0.027397260273972601
sg12
I2
sg13
F48.416666666666664
sg14
F34.75
sg15
I157
sg16
F0.33333333333333331
sg17
F208.80000000000001
sg18
I12
sg19
I98
sg20
I3116
sg21
F17.400000000000002
sg22
VReggie Bush
p239
sa(dp240
g3
F7.7586206896551726
sg4
I4
sg5
F0.13333333333333333
sg6
I666
sg7
F3.3979591836734695
sg8
I29
sg9
F0.020408163265306121
sg10
I225
sg11
F0.068965517241379309
sg12
I2
sg13
F44.399999999999999
sg14
F15
sg15
I196
sg16
F0.26666666666666666
sg17
F154.09999999999999
sg18
I15
sg19
I0
sg20
I11314
sg21
F10.273333333333333
sg22
VJohnny Johnson
p241
sa(dp242
g3
F8.9622641509433958
sg4
I4
sg5
F0.11764705882352941
sg6
I1351
sg7
F4.8422939068100357
sg8
I53
sg9
F0.014336917562724014
sg10
I475
sg11
F0.037735849056603772
sg12
I2
sg13
F79.470588235294116
sg14
F27.941176470588236
sg15
I279
sg16
F0.23529411764705882
sg17
F271.60000000000002
sg18
I17
sg19
I0
sg20
I523
sg21
F15.976470588235296
sg22
VWilliam Andrews
p243
sa(dp244
g3
F7.3125
sg4
I8
sg5
F0
sg6
I1225
sg7
F4.6226415094339623
sg8
I16
sg9
F0.030188679245283019
sg10
I117
sg11
F0
sg12
I0
sg13
F87.5
sg14
F8.3571428571428577
sg15
I265
sg16
F0.5714285714285714
sg17
F198.19999999999999
sg18
I14
sg19
I0
sg20
I3182
sg21
F14.157142857142857
sg22
VMarion Butts
p245
sa(dp246
g3
F13.147058823529411
sg4
I8
sg5
F0.14285714285714285
sg6
I1231
sg7
F5.3755458515283845
sg8
I34
sg9
F0.034934497816593885
sg10
I447
sg11
F0.058823529411764705
sg12
I2
sg13
F87.928571428571431
sg14
F31.928571428571427
sg15
I229
sg16
F0.5714285714285714
sg17
F261.80000000000001
sg18
I14
sg19
I0
sg20
I19574
sg21
F18.699999999999999
sg22
VGale Sayers
p247
sa(dp248
g3
F7.612903225806452
sg4
I7
sg5
F0
sg6
I762
sg7
F4.2333333333333334
sg8
I31
sg9
F0.03888888888888889
sg10
I236
sg11
F0
sg12
I0
sg13
F47.625
sg14
F14.75
sg15
I180
sg16
F0.4375
sg17
F172.80000000000001
sg18
I16
sg19
I0
sg20
I11385
sg21
F10.800000000000001
sg22
VPete Johnson
p249
sa(dp250
g3
F10.145833333333334
sg4
I8
sg5
F0.2857142857142857
sg6
I1027
sg7
F3.9049429657794676
sg8
I48
sg9
F0.030418250950570342
sg10
I487
sg11
F0.083333333333333329
sg12
I4
sg13
F73.357142857142861
sg14
F34.785714285714285
sg15
I263
sg16
F0.5714285714285714
sg17
F271.39999999999998
sg18
I14
sg19
I0
sg20
I11405
sg21
F19.385714285714283
sg22
VRon Johnson
p251
sa(dp252
g3
F6.2222222222222223
sg4
I20
sg5
F0
sg6
I1762
sg7
F4.3940149625935163
sg8
I18
sg9
F0.049875311720698257
sg10
I112
sg11
F0
sg12
I0
sg13
F97.888888888888886
sg14
F6.2222222222222223
sg15
I401
sg16
F1.1111111111111112
sg17
F325.39999999999998
sg18
I18
sg19
I0
sg20
I3324
sg21
F18.077777777777776
sg22
VEarl Campbell
p253
sa(dp254
g3
F11.142857142857142
sg4
I6
sg5
F0
sg6
I436
sg7
F3.7913043478260868
sg8
I21
sg9
F0.052173913043478258
sg10
I234
sg11
F0
sg12
I0
sg13
F36.333333333333336
sg14
F19.5
sg15
I115
sg16
F0.5
sg17
F124
sg18
I12
sg19
I0
sg20
I3355
sg21
F10.333333333333334
sg22
VWoody Campbell
p255
sa(dp256
g3
F6.2285714285714286
sg4
I5
sg5
F0
sg6
I993
sg7
F3.8638132295719845
sg8
I35
sg9
F0.019455252918287938
sg10
I218
sg11
F0
sg12
I0
sg13
F76.384615384615387
sg14
F16.76923076923077
sg15
I257
sg16
F0.38461538461538464
sg17
F186.09999999999999
sg18
I13
sg19
I45
sg20
I11635
sg21
F14.315384615384614
sg22
VJulius Jones
p257
sa(dp258
g3
F5.4500000000000002
sg4
I5
sg5
F0
sg6
I664
sg7
F3.5698924731182795
sg8
I20
sg9
F0.026881720430107527
sg10
I109
sg11
F0
sg12
I0
sg13
F51.07692307692308
sg14
F8.384615384615385
sg15
I186
sg16
F0.38461538461538464
sg17
F127.3
sg18
I13
sg19
I28
sg20
I11643
sg21
F9.7923076923076913
sg22
VKevin Jones
p259
sa(dp260
g3
F9.125
sg4
I3
sg5
F0
sg6
I460
sg7
F4.6464646464646462
sg8
I8
sg9
F0.030303030303030304
sg10
I73
sg11
F0
sg12
I0
sg13
F65.714285714285708
sg14
F10.428571428571429
sg15
I99
sg16
F0.42857142857142855
sg17
F79.299999999999997
sg18
I7
sg19
I8
sg20
I11664
sg21
F11.328571428571427
sg22
VMatt Jones
p261
sa(dp262
g3
F7.1904761904761907
sg4
I5
sg5
F0
sg6
I380
sg7
F3.3928571428571428
sg8
I21
sg9
F0.044642857142857144
sg10
I151
sg11
F0
sg12
I0
sg13
F23.75
sg14
F9.4375
sg15
I112
sg16
F0.3125
sg17
F104.09999999999999
sg18
I16
sg19
I24
sg20
I11713
sg21
F6.5062499999999996
sg22
VThomas Jones
p263
sa(dp264
g3
F10.617021276595745
sg4
I10
sg5
F0.058823529411764705
sg6
I816
sg7
F4.5082872928176796
sg8
I47
sg9
F0.055248618784530384
sg10
I499
sg11
F0.021276595744680851
sg12
I1
sg13
F48
sg14
F29.352941176470587
sg15
I181
sg16
F0.58823529411764708
sg17
F244.5
sg18
I17
sg19
I64
sg20
I11732
sg21
F14.382352941176471
sg22
VMaurice Jones-Drew
p265
sa(dp266
g3
F11
sg4
I2
sg5
F0.0625
sg6
I379
sg7
F4.4588235294117649
sg8
I23
sg9
F0.023529411764705882
sg10
I253
sg11
F0.043478260869565216
sg12
I1
sg13
F23.6875
sg14
F15.8125
sg15
I85
sg16
F0.125
sg17
F104.2
sg18
I16
sg19
I0
sg20
I3566
sg21
F6.5125000000000002
sg22
VDexter Carter
p267
sa(dp268
g3
F7.4761904761904763
sg4
I7
sg5
F0
sg6
I464
sg7
F3.625
sg8
I21
sg9
F0.0546875
sg10
I157
sg11
F0
sg12
I0
sg13
F30.933333333333334
sg14
F10.466666666666667
sg15
I128
sg16
F0.46666666666666667
sg17
F125.09999999999999
sg18
I15
sg19
I31
sg20
I3582
sg21
F8.3399999999999999
sg22
VKi-Jana Carter
p269
sa(dp270
g3
F6.5
sg4
I1
sg5
F0.0625
sg6
I874
sg7
F5.8266666666666671
sg8
I22
sg9
F0.0066666666666666671
sg10
I143
sg11
F0.045454545454545456
sg12
I1
sg13
F54.625
sg14
F8.9375
sg15
I150
sg16
F0.0625
sg17
F135.69999999999999
sg18
I16
sg19
I26
sg20
I11953
sg21
F8.4812499999999993
sg22
VNapoleon Kaufman 
p271
sa(dp272
g3
F8.4347826086956523
sg4
I5
sg5
F0.125
sg6
I312
sg7
F3.1515151515151514
sg8
I23
sg9
F0.050505050505050504
sg10
I194
sg11
F0.043478260869565216
sg12
I1
sg13
F39
sg14
F24.25
sg15
I99
sg16
F0.625
sg17
F109.59999999999999
sg18
I8
sg19
I0
sg20
I3943
sg21
F13.699999999999999
sg22
VBoobie Clark
p273
sa(dp274
g3
F13.9
sg4
I5
sg5
F0
sg6
I488
sg7
F4.0666666666666664
sg8
I10
sg9
F0.041666666666666664
sg10
I139
sg11
F0
sg12
I0
sg13
F61
sg14
F17.375
sg15
I120
sg16
F0.625
sg17
F102.7
sg18
I8
sg19
I0
sg20
I20332
sg21
F12.8375
sg22
VO.J. Simpson
p275
sa(dp276
g3
F12.631578947368421
sg4
I2
sg5
F0
sg6
I397
sg7
F3.6422018348623855
sg8
I19
sg9
F0.01834862385321101
sg10
I240
sg11
F0
sg12
I0
sg13
F44.111111111111114
sg14
F26.666666666666668
sg15
I109
sg16
F0.22222222222222221
sg17
F94.700000000000003
sg18
I9
sg19
I0
sg20
I23869
sg21
F10.522222222222222
sg22
VArthur Whittington
p277
sa(dp278
g3
F16.107142857142858
sg4
I13
sg5
F0.14285714285714285
sg6
I1437
sg7
F4.8547297297297298
sg8
I28
sg9
F0.043918918918918921
sg10
I451
sg11
F0.071428571428571425
sg12
I2
sg13
F102.64285714285714
sg14
F32.214285714285715
sg15
I296
sg16
F0.9285714285714286
sg17
F306.80000000000001
sg18
I14
sg19
I0
sg20
I20337
sg21
F21.914285714285715
sg22
VBilly Sims
p279
sa(dp280
g3
F6.5
sg4
I14
sg5
F0.083333333333333329
sg6
I752
sg7
F4.3218390804597702
sg8
I30
sg9
F0.080459770114942528
sg10
I195
sg11
F0.033333333333333333
sg12
I1
sg13
F62.666666666666664
sg14
F16.25
sg15
I174
sg16
F1.1666666666666667
sg17
F214.69999999999999
sg18
I12
sg19
I0
sg20
I20340
sg21
F17.891666666666666
sg22
VDavid Sims
p281
sa(dp282
g3
F15.275862068965518
sg4
I9
sg5
F0.071428571428571425
sg6
I575
sg7
F3.1944444444444446
sg8
I29
sg9
F0.050000000000000003
sg10
I443
sg11
F0.034482758620689655
sg12
I1
sg13
F41.071428571428569
sg14
F31.642857142857142
sg15
I180
sg16
F0.6428571428571429
sg17
F190.80000000000001
sg18
I14
sg19
I0
sg20
I12204
sg21
F13.62857142857143
sg22
VJim Kiick 
p283
sa(dp284
g3
F9.4772727272727266
sg4
I3
sg5
F0.36363636363636365
sg6
I437
sg7
F3.33587786259542
sg8
I44
sg9
F0.022900763358778626
sg10
I417
sg11
F0.090909090909090912
sg12
I4
sg13
F39.727272727272727
sg14
F37.909090909090907
sg15
I131
sg16
F0.27272727272727271
sg17
F171.40000000000001
sg18
I11
sg19
I55
sg20
I20446
sg21
F15.581818181818182
sg22
VSteve Slaton
p285
sa(dp286
g3
F7.4000000000000004
sg4
I7
sg5
F0
sg6
I752
sg7
F3.8367346938775508
sg8
I15
sg9
F0.035714285714285712
sg10
I111
sg11
F0
sg12
I0
sg13
F47
sg14
F6.9375
sg15
I196
sg16
F0.4375
sg17
F143.30000000000001
sg18
I16
sg19
I0
sg20
I4131
sg21
F8.9562500000000007
sg22
VReggie Cobb
p287
sa(dp288
g3
F12.166666666666666
sg4
I3
sg5
F0.1875
sg6
I634
sg7
F3.218274111675127
sg8
I42
sg9
F0.015228426395939087
sg10
I511
sg11
F0.071428571428571425
sg12
I3
sg13
F39.625
sg14
F31.9375
sg15
I197
sg16
F0.1875
sg17
F192.5
sg18
I16
sg19
I0
sg20
I20557
sg21
F12.03125
sg22
VCharlie Smith
p289
sa(dp290
g3
F5.2000000000000002
sg4
I13
sg5
F0.055555555555555552
sg6
I1748
sg7
F4.305418719211823
sg8
I50
sg9
F0.032019704433497539
sg10
I260
sg11
F0.02
sg12
I1
sg13
F97.111111111111114
sg14
F14.444444444444445
sg15
I406
sg16
F0.72222222222222221
sg17
F334.80000000000001
sg18
I18
sg19
I0
sg20
I20608
sg21
F18.600000000000001
sg22
VEmmitt Smith
p291
sa(dp292
g3
F10.121951219512194
sg4
I4
sg5
F0.076923076923076927
sg6
I747
sg7
F3.4423963133640552
sg8
I41
sg9
F0.018433179723502304
sg10
I415
sg11
F0.024390243902439025
sg12
I1
sg13
F57.46153846153846
sg14
F31.923076923076923
sg15
I217
sg16
F0.30769230769230771
sg17
F187.19999999999999
sg18
I13
sg19
I57
sg20
I20685
sg21
F14.399999999999999
sg22
VKevin Smith
p293
sa(dp294
g3
F6.833333333333333
sg4
I1
sg5
F0.090909090909090912
sg6
I338
sg7
F4.3896103896103895
sg8
I24
sg9
F0.012987012987012988
sg10
I164
sg11
F0.041666666666666664
sg12
I1
sg13
F30.727272727272727
sg14
F14.909090909090908
sg15
I77
sg16
F0.090909090909090912
sg17
F86.200000000000003
sg18
I11
sg19
I0
sg20
I20692
sg21
F7.8363636363636369
sg22
VLarry Smith
p295
sa(dp296
g3
F10.199999999999999
sg4
I1
sg5
F0.20000000000000001
sg6
I667
sg7
F3.9005847953216373
sg8
I20
sg9
F0.0058479532163742687
sg10
I204
sg11
F0.10000000000000001
sg12
I2
sg13
F66.700000000000003
sg14
F20.399999999999999
sg15
I171
sg16
F0.10000000000000001
sg17
F125.09999999999999
sg18
I10
sg19
I0
sg20
I4334
sg21
F12.51
sg22
VTony Collins
p297
sa(dp298
g3
F10.571428571428571
sg4
I2
sg5
F0.15384615384615385
sg6
I617
sg7
F4.345070422535211
sg8
I42
sg9
F0.014084507042253521
sg10
I444
sg11
F0.047619047619047616
sg12
I2
sg13
F47.46153846153846
sg14
F34.153846153846153
sg15
I142
sg16
F0.15384615384615385
sg17
F172.09999999999999
sg18
I13
sg19
I57
sg20
I20729
sg21
F13.238461538461538
sg22
VOnterrio Smith
p299
sa(dp300
g3
F11.785714285714286
sg4
I8
sg5
F0.055555555555555552
sg6
I1012
sg7
F3.7902621722846441
sg8
I14
sg9
F0.029962546816479401
sg10
I165
sg11
F0.071428571428571425
sg12
I1
sg13
F56.222222222222221
sg14
F9.1666666666666661
sg15
I267
sg16
F0.44444444444444442
sg17
F185.69999999999999
sg18
I18
sg19
I0
sg20
I20771
sg21
F10.316666666666666
sg22
VSammie Smith
p301
sa(dp302
g3
F13.966666666666667
sg4
I4
sg5
F0.14285714285714285
sg6
I763
sg7
F4.6809815950920246
sg8
I30
sg9
F0.024539877300613498
sg10
I419
sg11
F0.066666666666666666
sg12
I2
sg13
F54.5
sg14
F29.928571428571427
sg15
I163
sg16
F0.2857142857142857
sg17
F184.19999999999999
sg18
I14
sg19
I0
sg20
I20778
sg21
F13.157142857142857
sg22
VSherman Smith
p303
sa(dp304
g3
F6.9473684210526319
sg4
I4
sg5
F0
sg6
I763
sg7
F4.5147928994082838
sg8
I38
sg9
F0.023668639053254437
sg10
I264
sg11
F0
sg12
I0
sg13
F58.692307692307693
sg14
F20.307692307692307
sg15
I169
sg16
F0.30769230769230771
sg17
F164.69999999999999
sg18
I13
sg19
I0
sg20
I20842
sg21
F12.669230769230769
sg22
VMatt Snell
p305
sa(dp306
g3
F10.162790697674419
sg4
I9
sg5
F0.22222222222222221
sg6
I1313
sg7
F4.5909090909090908
sg8
I43
sg9
F0.031468531468531472
sg10
I437
sg11
F0.093023255813953487
sg12
I4
sg13
F72.944444444444443
sg14
F24.277777777777779
sg15
I286
sg16
F0.5
sg17
F296
sg18
I18
sg19
I59
sg20
I12749
sg21
F16.444444444444443
sg22
VEddie Lacy
p307
sa(dp308
g3
F10.106382978723405
sg4
I2
sg5
F0.066666666666666666
sg6
I504
sg7
F3.3825503355704698
sg8
I47
sg9
F0.013422818791946308
sg10
I475
sg11
F0.021276595744680851
sg12
I1
sg13
F33.600000000000001
sg14
F31.666666666666668
sg15
I149
sg16
F0.13333333333333333
sg17
F162.90000000000001
sg18
I15
sg19
I0
sg20
I6228
sg21
F10.860000000000001
sg22
VJerry Eckwood
p309
sa(dp310
g3
F7.083333333333333
sg4
I5
sg5
F0
sg6
I717
sg7
F3.4975609756097561
sg8
I12
sg9
F0.024390243902439025
sg10
I85
sg11
F0
sg12
I0
sg13
F51.214285714285715
sg14
F6.0714285714285712
sg15
I205
sg16
F0.35714285714285715
sg17
F122.2
sg18
I14
sg19
I15
sg20
I12837
sg21
F8.7285714285714295
sg22
VFred Lane
p311
sa(dp312
g3
F9.5487804878048781
sg4
I8
sg5
F0.26315789473684209
sg6
I785
sg7
F4.1755319148936172
sg8
I82
sg9
F0.042553191489361701
sg10
I783
sg11
F0.06097560975609756
sg12
I5
sg13
F41.315789473684212
sg14
F41.210526315789473
sg15
I188
sg16
F0.42105263157894735
sg17
F316.80000000000001
sg18
I19
sg19
I8
sg20
I4714
sg21
F16.673684210526318
sg22
VRoger Craig
p313
sa(dp314
g3
F7.2727272727272725
sg4
I1
sg5
F0
sg6
I621
sg7
F4.4676258992805753
sg8
I33
sg9
F0.0071942446043165471
sg10
I240
sg11
F0
sg12
I0
sg13
F44.357142857142854
sg14
F17.142857142857142
sg15
I139
sg16
F0.071428571428571425
sg17
F125.09999999999999
sg18
I14
sg19
I42
sg20
I21133
sg21
F8.9357142857142851
sg22
VJames Starks
p315
sa(dp316
g3
F15.159090909090908
sg4
I6
sg5
F0.41176470588235292
sg6
I1270
sg7
F4.4250871080139369
sg8
I44
sg9
F0.020905923344947737
sg10
I667
sg11
F0.15909090909090909
sg12
I7
sg13
F74.705882352941174
sg14
F39.235294117647058
sg15
I287
sg16
F0.35294117647058826
sg17
F315.69999999999999
sg18
I17
sg19
I0
sg20
I4768
sg21
F18.570588235294117
sg22
VJoe Cribbs
p317
sa(dp318
g3
F9.5789473684210531
sg4
I4
sg5
F0.0625
sg6
I706
sg7
F3.8162162162162163
sg8
I19
sg9
F0.021621621621621623
sg10
I182
sg11
F0.052631578947368418
sg12
I1
sg13
F44.125
sg14
F11.375
sg15
I185
sg16
F0.25
sg17
F137.80000000000001
sg18
I16
sg19
I22
sg20
I4860
sg21
F8.6125000000000007
sg22
VIsaiah Crowell
p319
sa(dp320
g3
F8.7142857142857135
sg4
I2
sg5
F0.090909090909090912
sg6
I566
sg7
F4.3206106870229011
sg8
I21
sg9
F0.015267175572519083
sg10
I183
sg11
F0.047619047619047616
sg12
I1
sg13
F51.454545454545453
sg14
F16.636363636363637
sg15
I131
sg16
F0.18181818181818182
sg17
F113.90000000000001
sg18
I11
sg19
I0
sg20
I4885
sg21
F10.354545454545455
sg22
VLarry Csonka 
p321
sa(dp322
g3
F6.3235294117647056
sg4
I8
sg5
F0.125
sg6
I782
sg7
F3.796116504854369
sg8
I34
sg9
F0.038834951456310676
sg10
I215
sg11
F0.058823529411764705
sg12
I2
sg13
F48.875
sg14
F13.4375
sg15
I206
sg16
F0.5
sg17
F193.69999999999999
sg18
I16
sg19
I44
sg20
I21286
sg21
F12.106249999999999
sg22
VJames Stewart
p323
sa(dp324
g3
F7.7222222222222223
sg4
I10
sg5
F0.0625
sg6
I1133
sg7
F5.126696832579186
sg8
I18
sg9
F0.045248868778280542
sg10
I139
sg11
F0.055555555555555552
sg12
I1
sg13
F70.8125
sg14
F8.6875
sg15
I221
sg16
F0.625
sg17
F211.19999999999999
sg18
I16
sg19
I26
sg20
I21291
sg21
F13.199999999999999
sg22
VJonathan Stewart
p325
sa(dp326
g3
F9.7272727272727266
sg4
I9
sg5
F0.20000000000000001
sg6
I811
sg7
F4.8855421686746991
sg8
I22
sg9
F0.054216867469879519
sg10
I214
sg11
F0.090909090909090912
sg12
I2
sg13
F81.099999999999994
sg14
F21.399999999999999
sg15
I166
sg16
F0.90000000000000002
sg17
F190.5
sg18
I10
sg19
I0
sg20
I4936
sg21
F19.050000000000001
sg22
VSam Cunningham
p327
sa(dp328
g3
F17.421052631578949
sg4
I3
sg5
F0.090909090909090912
sg6
I584
sg7
F3.6962025316455698
sg8
I19
sg9
F0.018987341772151899
sg10
I331
sg11
F0.052631578947368418
sg12
I1
sg13
F53.090909090909093
sg14
F30.09090909090909
sg15
I158
sg16
F0.27272727272727271
sg17
F134.5
sg18
I11
sg19
I0
sg20
I13425
sg21
F12.227272727272727
sg22
VFloyd Little
p329
sa(dp330
g3
F7.8571428571428568
sg4
I3
sg5
F0
sg6
I413
sg7
F3.7889908256880735
sg8
I14
sg9
F0.027522935779816515
sg10
I110
sg11
F0
sg12
I0
sg13
F41.299999999999997
sg14
F11
sg15
I109
sg16
F0.29999999999999999
sg17
F84.299999999999997
sg18
I10
sg19
I0
sg20
I5257
sg21
F8.4299999999999997
sg22
VKenneth Davis 
p331
sa(dp332
g3
F9.1875
sg4
I6
sg5
F0.0625
sg6
I463
sg7
F3.455223880597015
sg8
I16
sg9
F0.044776119402985072
sg10
I147
sg11
F0.0625
sg12
I1
sg13
F28.9375
sg14
F9.1875
sg15
I134
sg16
F0.375
sg17
F119
sg18
I16
sg19
I25
sg20
I5258
sg21
F7.4375
sg22
VKnile Davis 
p333
sa(dp334
g3
F7.7674418604651159
sg4
I14
sg5
F0.11764705882352941
sg6
I1629
sg7
F4.5376044568245124
sg8
I43
sg9
F0.038997214484679667
sg10
I334
sg11
F0.046511627906976744
sg12
I2
sg13
F95.82352941176471
sg14
F19.647058823529413
sg15
I359
sg16
F0.82352941176470584
sg17
F335.30000000000001
sg18
I17
sg19
I61
sg20
I5308
sg21
F19.723529411764705
sg22
VTerrell Davis 
p335
sa(dp336
g3
F8.375
sg4
I7
sg5
F0
sg6
I690
sg7
F3.8333333333333335
sg8
I8
sg9
F0.03888888888888889
sg10
I67
sg11
F0
sg12
I0
sg13
F43.125
sg14
F4.1875
sg15
I180
sg16
F0.4375
sg17
F125.7
sg18
I16
sg19
I11
sg20
I5377
sg21
F7.8562500000000002
sg22
VRon Dayne
p337
sa(dp338
g3
F6.8181818181818183
sg4
I8
sg5
F0.066666666666666666
sg6
I589
sg7
F3.5269461077844313
sg8
I11
sg9
F0.04790419161676647
sg10
I75
sg11
F0.090909090909090912
sg12
I1
sg13
F39.266666666666666
sg14
F5
sg15
I167
sg16
F0.53333333333333333
sg17
F131.40000000000001
sg18
I15
sg19
I0
sg20
I21801
sg21
F8.7599999999999998
sg22
VLars Tate
p339
sa(dp340
g3
F4.8181818181818183
sg4
I0
sg5
F0
sg6
I380
sg7
F4
sg8
I11
sg9
F0
sg10
I53
sg11
F0
sg12
I0
sg13
F47.5
sg14
F6.625
sg15
I95
sg16
F0
sg17
F54.299999999999997
sg18
I8
sg19
I0
sg20
I5439
sg21
F6.7874999999999996
sg22
VJoe Delaney
p341
sa(dp342
g3
F9.2413793103448274
sg4
I2
sg5
F0.13333333333333333
sg6
I682
sg7
F3.2946859903381642
sg8
I29
sg9
F0.0096618357487922701
sg10
I268
sg11
F0.068965517241379309
sg12
I2
sg13
F45.466666666666669
sg14
F17.866666666666667
sg15
I207
sg16
F0.13333333333333333
sg17
F148
sg18
I15
sg19
I0
sg20
I21824
sg21
F9.8666666666666671
sg22
VAltie Taylor
p343
sa(dp344
g3
F10.615384615384615
sg4
I7
sg5
F0.083333333333333329
sg6
I977
sg7
F4.9846938775510203
sg8
I13
sg9
F0.035714285714285712
sg10
I138
sg11
F0.076923076923076927
sg12
I1
sg13
F81.416666666666671
sg14
F11.5
sg15
I196
sg16
F0.58333333333333337
sg17
F172.5
sg18
I12
sg19
I19
sg20
I21850
sg21
F14.375
sg22
VFred Taylor
p345
sa(dp346
g3
F6.3829787234042552
sg4
I8
sg5
F0.066666666666666666
sg6
I1036
sg7
F4.1440000000000001
sg8
I47
sg9
F0.032000000000000001
sg10
I300
sg11
F0.021276595744680851
sg12
I1
sg13
F69.066666666666663
sg14
F20
sg15
I250
sg16
F0.53333333333333333
sg17
F234.59999999999999
sg18
I15
sg19
I67
sg20
I13751
sg21
F15.639999999999999
sg22
VMarshawn Lynch 
p347
sa(dp348
g3
F10.371428571428572
sg4
I11
sg5
F0
sg6
I822
sg7
F3.7363636363636363
sg8
I35
sg9
F0.050000000000000003
sg10
I363
sg11
F0
sg12
I0
sg13
F58.714285714285715
sg14
F25.928571428571427
sg15
I220
sg16
F0.7857142857142857
sg17
F219.5
sg18
I14
sg19
I0
sg20
I13796
sg21
F15.678571428571429
sg22
VKevin Mack
p349
sa(dp350
g3
F6.6190476190476186
sg4
I15
sg5
F0
sg6
I2212
sg7
F5.5024875621890548
sg8
I21
sg9
F0.037313432835820892
sg10
I139
sg11
F0
sg12
I0
sg13
F130.11764705882354
sg14
F8.1764705882352935
sg15
I402
sg16
F0.88235294117647056
sg17
F346.10000000000002
sg18
I17
sg19
I0
sg20
I5605
sg21
F20.358823529411765
sg22
VEric Dickerson
p351
sa(dp352
g3
F11.324324324324325
sg4
I7
sg5
F0.20000000000000001
sg6
I779
sg7
F4.75
sg8
I37
sg9
F0.042682926829268296
sg10
I419
sg11
F0.081081081081081086
sg12
I3
sg13
F51.93333333333333
sg14
F27.933333333333334
sg15
I164
sg16
F0.46666666666666667
sg17
F216.80000000000001
sg18
I15
sg19
I0
sg20
I5609
sg21
F14.453333333333335
sg22
VCurtis Dickey
p353
sa(dp354
g3
F6.791666666666667
sg4
I6
sg5
F0
sg6
I721
sg7
F3.3691588785046731
sg8
I24
sg9
F0.028037383177570093
sg10
I163
sg11
F0
sg12
I0
sg13
F60.083333333333336
sg14
F13.583333333333334
sg15
I214
sg16
F0.5
sg17
F148.40000000000001
sg18
I12
sg19
I41
sg20
I22001
sg21
F12.366666666666667
sg22
VAnthony Thomas
p355
sa(dp356
g3
F6.5
sg4
I3
sg5
F0.0625
sg6
I728
sg7
F3.8518518518518516
sg8
I30
sg9
F0.015873015873015872
sg10
I195
sg11
F0.033333333333333333
sg12
I1
sg13
F45.5
sg14
F12.1875
sg15
I189
sg16
F0.1875
sg17
F146.30000000000001
sg18
I16
sg19
I0
sg20
I22004
sg21
F9.1437500000000007
sg22
VBlair Thomas
p357
sa(dp358
g3
F10.4
sg4
I4
sg5
F0
sg6
I325
sg7
F3.5714285714285716
sg8
I15
sg9
F0.043956043956043959
sg10
I156
sg11
F0
sg12
I0
sg13
F27.083333333333332
sg14
F13
sg15
I91
sg16
F0.33333333333333331
sg17
F87.099999999999994
sg18
I12
sg19
I22
sg20
I22024
sg21
F7.2583333333333329
sg22
VDaniel Thomas
p359
sa(dp360
g3
F10
sg4
I14
sg5
F0.14285714285714285
sg6
I998
sg7
F4.339130434782609
sg8
I18
sg9
F0.060869565217391307
sg10
I180
sg11
F0.1111111111111111
sg12
I2
sg13
F71.285714285714292
sg14
F12.857142857142858
sg15
I230
sg16
F1
sg17
F231.80000000000001
sg18
I14
sg19
I0
sg20
I22037
sg21
F16.557142857142857
sg22
VDuane Thomas
p361
sa(dp362
g3
F6.3571428571428568
sg4
I4
sg5
F0.066666666666666666
sg6
I1130
sg7
F4.3129770992366412
sg8
I28
sg9
F0.015267175572519083
sg10
I178
sg11
F0.035714285714285712
sg12
I1
sg13
F75.333333333333329
sg14
F11.866666666666667
sg15
I262
sg16
F0.26666666666666666
sg17
F188.80000000000001
sg18
I15
sg19
I44
sg20
I5655
sg21
F12.586666666666668
sg22
VCorey Dillon
p363
sa(dp364
g3
F10.266666666666667
sg4
I5
sg5
F0.2857142857142857
sg6
I1146
sg7
F4.3245283018867928
sg8
I30
sg9
F0.018867924528301886
sg10
I308
sg11
F0.13333333333333333
sg12
I4
sg13
F81.857142857142861
sg14
F22
sg15
I265
sg16
F0.35714285714285715
sg17
F229.40000000000001
sg18
I14
sg19
I0
sg20
I22096
sg21
F16.385714285714286
sg22
VMike Thomas
p365
sa(dp366
g3
F11.219178082191782
sg4
I6
sg5
F0.47058823529411764
sg6
I1271
sg7
F4.1266233766233764
sg8
I73
sg9
F0.01948051948051948
sg10
I819
sg11
F0.1095890410958904
sg12
I8
sg13
F74.764705882352942
sg14
F48.176470588235297
sg15
I308
sg16
F0.35294117647058826
sg17
F366
sg18
I17
sg19
I0
sg20
I22128
sg21
F21.529411764705884
sg22
VThurman Thomas
p367
sa(dp368
g3
F7.4285714285714288
sg4
I1
sg5
F0
sg6
I376
sg7
F2.9841269841269842
sg8
I7
sg9
F0.0079365079365079361
sg10
I52
sg11
F0
sg12
I0
sg13
F23.5
sg14
F3.25
sg15
I126
sg16
F0.0625
sg17
F55.799999999999997
sg18
I16
sg19
I0
sg20
I22147
sg21
F3.4874999999999998
sg22
VAnthony Thompson
p369
sa(dp370
g3
F9.9111111111111114
sg4
I8
sg5
F0.10526315789473684
sg6
I1587
sg7
F4.7091988130563802
sg8
I45
sg9
F0.023738872403560832
sg10
I446
sg11
F0.044444444444444446
sg12
I2
sg13
F83.526315789473685
sg14
F23.473684210526315
sg15
I337
sg16
F0.42105263157894735
sg17
F308.30000000000001
sg18
I19
sg19
I0
sg20
I5830
sg21
F16.226315789473684
sg22
VTony Dorsett
p371
sa(dp372
g3
F19.666666666666668
sg4
I9
sg5
F0
sg6
I1115
sg7
F4.5325203252032518
sg8
I9
sg9
F0.036585365853658534
sg10
I177
sg11
F0
sg12
I0
sg13
F69.6875
sg14
F11.0625
sg15
I246
sg16
F0.5625
sg17
F192.19999999999999
sg18
I16
sg19
I14
sg20
I14071
sg21
F12.012499999999999
sg22
VLaurence Maroney
p373
sa(dp374
g3
F7.1851851851851851
sg4
I19
sg5
F0.15789473684210525
sg6
I1419
sg7
F3.8876712328767122
sg8
I54
sg9
F0.052054794520547946
sg10
I388
sg11
F0.055555555555555552
sg12
I3
sg13
F74.684210526315795
sg14
F20.421052631578949
sg15
I365
sg16
F1
sg17
F366.69999999999999
sg18
I19
sg19
I65
sg20
I14142
sg21
F19.300000000000001
sg22
VCurtis Martin 
p375
sa(dp376
g3
F5.5
sg4
I1
sg5
F0
sg6
I456
sg7
F3.590551181102362
sg8
I12
sg9
F0.007874015748031496
sg10
I66
sg11
F0
sg12
I0
sg13
F76
sg14
F11
sg15
I127
sg16
F0.16666666666666666
sg17
F70.200000000000003
sg18
I6
sg19
I24
sg20
I14151
sg21
F11.700000000000001
sg22
VDoug Martin 
p377
sa(dp378
g3
F8.545454545454545
sg4
I11
sg5
F0
sg6
I779
sg7
F3.9543147208121829
sg8
I11
sg9
F0.055837563451776651
sg10
I94
sg11
F0
sg12
I0
sg13
F48.6875
sg14
F5.875
sg15
I197
sg16
F0.6875
sg17
F164.30000000000001
sg18
I16
sg19
I13
sg20
I5998
sg21
F10.268750000000001
sg22
VT.J. Duckett
p379
sa(dp380
g3
F6.1898734177215191
sg4
I14
sg5
F0.0625
sg6
I1683
sg7
F4.524193548387097
sg8
I79
sg9
F0.037634408602150539
sg10
I489
sg11
F0.012658227848101266
sg12
I1
sg13
F105.1875
sg14
F30.5625
sg15
I372
sg16
F0.875
sg17
F386.19999999999999
sg18
I16
sg19
I101
sg20
I22399
sg21
F24.137499999999999
sg22
VLaDainian Tomlinson
p381
sa(dp382
g3
F9.0999999999999996
sg4
I6
sg5
F0
sg6
I1091
sg7
F4.9144144144144146
sg8
I50
sg9
F0.027027027027027029
sg10
I455
sg11
F0
sg12
I0
sg13
F77.928571428571431
sg14
F32.5
sg15
I222
sg16
F0.42857142857142855
sg17
F240.59999999999999
sg18
I14
sg19
I59
sg20
I14267
sg21
F17.185714285714287
sg22
VRyan Mathews
p383
sa(dp384
g3
F7.8181818181818183
sg4
I2
sg5
F0
sg6
I1026
sg7
F4.1877551020408159
sg8
I44
sg9
F0.0081632653061224497
sg10
I344
sg11
F0
sg12
I0
sg13
F64.125
sg14
F21.5
sg15
I245
sg16
F0.125
sg17
F193
sg18
I16
sg19
I57
sg20
I6102
sg21
F12.0625
sg22
VWarrick Dunn
p385
sa(dp386
g3
F5.7073170731707314
sg4
I3
sg5
F0
sg6
I371
sg7
F2.6690647482014387
sg8
I41
sg9
F0.021582733812949641
sg10
I234
sg11
F0
sg12
I0
sg13
F28.53846153846154
sg14
F18
sg15
I139
sg16
F0.23076923076923078
sg17
F119.5
sg18
I13
sg19
I0
sg20
I14352
sg21
F9.1923076923076916
sg22
VAlvin Maxson
p387
sa(dp388
g3
F4.5333333333333332
sg4
I5
sg5
F0
sg6
I928
sg7
F3.7723577235772359
sg8
I15
sg9
F0.02032520325203252
sg10
I68
sg11
F0
sg12
I0
sg13
F71.384615384615387
sg14
F5.2307692307692308
sg15
I246
sg16
F0.38461538461538464
sg17
F144.59999999999999
sg18
I13
sg19
I0
sg20
I14385
sg21
F11.123076923076923
sg22
VRueben Mayes
p389
sa(dp390
g3
F7.666666666666667
sg4
I0
sg5
F0
sg6
I304
sg7
F3.3406593406593408
sg8
I9
sg9
F0
sg10
I69
sg11
F0
sg12
I0
sg13
F16
sg14
F3.6315789473684212
sg15
I91
sg16
F0
sg17
F46.299999999999997
sg18
I19
sg19
I14
sg20
I22612
sg21
F2.4368421052631577
sg22
VRobert Turbin
p391
sa(dp392
g3
F8.5869565217391308
sg4
I3
sg5
F0.16666666666666666
sg6
I660
sg7
F3.283582089552239
sg8
I46
sg9
F0.014925373134328358
sg10
I395
sg11
F0.043478260869565216
sg12
I2
sg13
F55
sg14
F32.916666666666664
sg15
I201
sg16
F0.25
sg17
F181.5
sg18
I12
sg19
I64
sg20
I6367
sg21
F15.125
sg22
VAndre Ellington
p393
sa(dp394
g3
F11.052631578947368
sg4
I7
sg5
F0.25
sg6
I783
sg7
F4.0994764397905756
sg8
I19
sg9
F0.036649214659685861
sg10
I210
sg11
F0.10526315789473684
sg12
I2
sg13
F97.875
sg14
F26.25
sg15
I191
sg16
F0.875
sg17
F172.30000000000001
sg18
I8
sg19
I26
sg20
I6375
sg21
F21.537500000000001
sg22
VEzekiel Elliott
p395
sa(dp396
g3
F7.6769230769230772
sg4
I4
sg5
F0.1875
sg6
I860
sg7
F4.3877551020408161
sg8
I65
sg9
F0.020408163265306121
sg10
I499
sg11
F0.046153846153846156
sg12
I3
sg13
F53.75
sg14
F31.1875
sg15
I196
sg16
F0.25
sg17
F242.90000000000001
sg18
I16
sg19
I0
sg20
I6398
sg21
F15.18125
sg22
VGerry Ellis
p397
sa(dp398
g3
F7.6585365853658534
sg4
I7
sg5
F0.125
sg6
I1126
sg7
F5.1415525114155249
sg8
I82
sg9
F0.031963470319634701
sg10
I628
sg11
F0.024390243902439025
sg12
I2
sg13
F70.375
sg14
F39.25
sg15
I219
sg16
F0.4375
sg17
F311.39999999999998
sg18
I16
sg19
I98
sg20
I14591
sg21
F19.462499999999999
sg22
VLeSean McCoy
p399
sa(dp400
g3
F7.9473684210526319
sg4
I3
sg5
F0.0625
sg6
I644
sg7
F3.7660818713450293
sg8
I19
sg9
F0.017543859649122806
sg10
I151
sg11
F0.052631578947368418
sg12
I1
sg13
F40.25
sg14
F9.4375
sg15
I171
sg16
F0.1875
sg17
F122.5
sg18
I16
sg19
I23
sg20
I22856
sg21
F7.65625
sg22
VTommy Vardell
p401
sa(dp402
g3
F7.5555555555555554
sg4
I3
sg5
F0.13333333333333333
sg6
I916
sg7
F3.1916376306620209
sg8
I45
sg9
F0.010452961672473868
sg10
I340
sg11
F0.044444444444444446
sg12
I2
sg13
F61.06666666666667
sg14
F22.666666666666668
sg15
I287
sg16
F0.20000000000000001
sg17
F200.59999999999999
sg18
I15
sg19
I68
sg20
I6487
sg21
F13.373333333333333
sg22
VCurtis Enis
p403
sa(dp404
g3
F9.8571428571428577
sg4
I7
sg5
F0
sg6
I833
sg7
F3.4139344262295084
sg8
I21
sg9
F0.028688524590163935
sg10
I207
sg11
F0
sg12
I0
sg13
F59.5
sg14
F14.785714285714286
sg15
I244
sg16
F0.5
sg17
F167
sg18
I14
sg19
I0
sg20
I21221
sg21
F11.928571428571429
sg22
VJohn Stephens
p405
sa(dp406
g3
F7.875
sg4
I2
sg5
F0
sg6
I495
sg7
F3.2781456953642385
sg8
I32
sg9
F0.013245033112582781
sg10
I252
sg11
F0
sg12
I0
sg13
F30.9375
sg14
F15.75
sg15
I151
sg16
F0.125
sg17
F118.7
sg18
I16
sg19
I42
sg20
I6523
sg21
F7.4187500000000002
sg22
VRicky Ervins
p407
sa(dp408
g3
F6.3571428571428568
sg4
I5
sg5
F0
sg6
I1247
sg7
F3.8369230769230769
sg8
I28
sg9
F0.015384615384615385
sg10
I178
sg11
F0
sg12
I0
sg13
F77.9375
sg14
F11.125
sg15
I325
sg16
F0.3125
sg17
F200.5
sg18
I16
sg19
I37
sg20
I14741
sg21
F12.53125
sg22
VWillis McGahee
p409
sa(dp410
g3
F11.666666666666666
sg4
I1
sg5
F0
sg6
I357
sg7
F3.4326923076923075
sg8
I21
sg9
F0.0096153846153846159
sg10
I245
sg11
F0
sg12
I0
sg13
F29.75
sg14
F20.416666666666668
sg15
I104
sg16
F0.083333333333333329
sg17
F87.200000000000003
sg18
I12
sg19
I36
sg20
I14725
sg21
F7.2666666666666666
sg22
VDarren McFadden
p411
sa(dp412
g3
F15.625
sg4
I3
sg5
F0.44444444444444442
sg6
I597
sg7
F4.6640625
sg8
I24
sg9
F0.0234375
sg10
I375
sg11
F0.16666666666666666
sg12
I4
sg13
F66.333333333333329
sg14
F41.666666666666664
sg15
I128
sg16
F0.33333333333333331
sg17
F163.19999999999999
sg18
I9
sg19
I0
sg20
I6700
sg21
F18.133333333333333
sg22
VMel Farr
p413
sa(dp414
g3
F11.916666666666666
sg4
I7
sg5
F0.083333333333333329
sg6
I891
sg7
F4.2631578947368425
sg8
I60
sg9
F0.033492822966507178
sg10
I715
sg11
F0.016666666666666666
sg12
I1
sg13
F74.25
sg14
F59.583333333333336
sg15
I209
sg16
F0.58333333333333337
sg17
F268.60000000000002
sg18
I12
sg19
I0
sg20
I23099
sg21
F22.383333333333336
sg22
VHerschel Walker
p415
sa(dp416
g3
F8.4821428571428577
sg4
I11
sg5
F0.17647058823529413
sg6
I1094
sg7
F3.7724137931034485
sg8
I56
sg9
F0.03793103448275862
sg10
I475
sg11
F0.053571428571428568
sg12
I3
sg13
F64.352941176470594
sg14
F27.941176470588236
sg15
I290
sg16
F0.6470588235294118
sg17
F296.89999999999998
sg18
I17
sg19
I74
sg20
I6728
sg21
F17.464705882352941
sg22
VMarshall Faulk
p417
sa(dp418
g3
F6
sg4
I1
sg5
F0
sg6
I305
sg7
F3.0198019801980198
sg8
I15
sg9
F0.0099009900990099011
sg10
I90
sg11
F0
sg12
I0
sg13
F33.888888888888886
sg14
F10
sg15
I101
sg16
F0.1111111111111111
sg17
F60.5
sg18
I9
sg19
I0
sg20
I14953
sg21
F6.7222222222222223
sg22
VRandy McMillan
p419
sa(dp420
g3
F11.368421052631579
sg4
I7
sg5
F0.083333333333333329
sg6
I1135
sg7
F5.3537735849056602
sg8
I19
sg9
F0.033018867924528301
sg10
I216
sg11
F0.052631578947368418
sg12
I1
sg13
F94.583333333333329
sg14
F18
sg15
I212
sg16
F0.58333333333333337
sg17
F202.09999999999999
sg18
I12
sg19
I0
sg20
I14986
sg21
F16.841666666666665
sg22
VFreeman McNeil
p421
sa(dp422
g3
F9.0384615384615383
sg4
I3
sg5
F0.11764705882352941
sg6
I477
sg7
F3.4316546762589928
sg8
I26
sg9
F0.021582733812949641
sg10
I235
sg11
F0.076923076923076927
sg12
I2
sg13
F28.058823529411764
sg14
F13.823529411764707
sg15
I139
sg16
F0.17647058823529413
sg17
F127.2
sg18
I17
sg19
I0
sg20
I6808
sg21
F7.4823529411764707
sg22
VGill Fenerty
p423
sa(dp424
g3
F6.0888888888888886
sg4
I14
sg5
F0
sg6
I1591
sg7
F3.9775
sg8
I45
sg9
F0.035000000000000003
sg10
I274
sg11
F0
sg12
I0
sg13
F83.736842105263165
sg14
F14.421052631578947
sg15
I400
sg16
F0.73684210526315785
sg17
F315.5
sg18
I19
sg19
I52
sg20
I15055
sg21
F16.605263157894736
sg22
VNatrone Means
p425
sa(dp426
g3
F5
sg4
I1
sg5
F0
sg6
I559
sg7
F3.936619718309859
sg8
I10
sg9
F0.0070422535211267607
sg10
I50
sg11
F0
sg12
I0
sg13
F79.857142857142861
sg14
F7.1428571428571432
sg15
I142
sg16
F0.14285714285714285
sg17
F76.900000000000006
sg18
I7
sg19
I14
sg20
I8412
sg21
F10.985714285714286
sg22
VWilliam Green
p427
sa(dp428
g3
F5.916666666666667
sg4
I3
sg5
F0
sg6
I353
sg7
F4.971830985915493
sg8
I36
sg9
F0.042253521126760563
sg10
I213
sg11
F0
sg12
I0
sg13
F22.0625
sg14
F13.3125
sg15
I71
sg16
F0.1875
sg17
F110.59999999999999
sg18
I16
sg19
I51
sg20
I23345
sg21
F6.9124999999999996
sg22
VLeon Washington
p429
sa(dp430
g3
F9.4186046511627914
sg4
I16
sg5
F0.066666666666666666
sg6
I1105
sg7
F4.528688524590164
sg8
I43
sg9
F0.065573770491803282
sg10
I405
sg11
F0.023255813953488372
sg12
I1
sg13
F73.666666666666671
sg14
F27
sg15
I244
sg16
F1.0666666666666667
sg17
F296
sg18
I15
sg19
I59
sg20
I23431
sg21
F19.733333333333334
sg22
VRicky Watters
p431
sa(dp432
g3
F10.952380952380953
sg4
I10
sg5
F0.375
sg6
I989
sg7
F3.86328125
sg8
I63
sg9
F0.0390625
sg10
I690
sg11
F0.095238095238095233
sg12
I6
sg13
F61.8125
sg14
F43.125
sg15
I256
sg16
F0.625
sg17
F326.89999999999998
sg18
I16
sg19
I0
sg20
I7143
sg21
F20.431249999999999
sg22
VChuck Foreman
p433
sa(dp434
g3
F8.2631578947368425
sg4
I4
sg5
F0
sg6
I929
sg7
F3.6007751937984498
sg8
I57
sg9
F0.015503875968992248
sg10
I471
sg11
F0
sg12
I0
sg13
F58.0625
sg14
F29.4375
sg15
I258
sg16
F0.25
sg17
F221
sg18
I16
sg19
I72
sg20
I7164
sg21
F13.8125
sg22
VMatt Forte 
p435
sa(dp436
g3
F11.1
sg4
I1
sg5
F0
sg6
I484
sg7
F3.4820143884892087
sg8
I10
sg9
F0.0071942446043165471
sg10
I111
sg11
F0
sg12
I0
sg13
F30.25
sg14
F6.9375
sg15
I139
sg16
F0.0625
sg17
F75.5
sg18
I16
sg19
I0
sg20
I15367
sg21
F4.71875
sg22
VTerry Miller
p437
sa(dp438
g3
F10
sg4
I1
sg5
F0.15384615384615385
sg6
I352
sg7
F4.3456790123456788
sg8
I26
sg9
F0.012345679012345678
sg10
I260
sg11
F0.076923076923076927
sg12
I2
sg13
F27.076923076923077
sg14
F20
sg15
I81
sg16
F0.076923076923076927
sg17
F105.2
sg18
I13
sg19
I0
sg20
I7182
sg21
F8.092307692307692
sg22
VGene Foster 
p439
sa(dp440
g3
F14.800000000000001
sg4
I2
sg5
F0
sg6
I397
sg7
F3.4224137931034484
sg8
I5
sg9
F0.017241379310344827
sg10
I74
sg11
F0
sg12
I0
sg13
F30.53846153846154
sg14
F5.6923076923076925
sg15
I116
sg16
F0.15384615384615385
sg17
F64.099999999999994
sg18
I13
sg19
I8
sg20
I23582
sg21
F4.9307692307692301
sg22
VBeanie Wells
p441
sa(dp442
g3
F3
sg4
I9
sg5
F0
sg6
I1002
sg7
F3.9294117647058822
sg8
I3
sg9
F0.035294117647058823
sg10
I9
sg11
F0
sg12
I0
sg13
F77.07692307692308
sg14
F0.69230769230769229
sg15
I255
sg16
F0.69230769230769229
sg17
F158.09999999999999
sg18
I13
sg19
I0
sg20
I7276
sg21
F12.161538461538461
sg22
VAndra Franklin
p443
sa(dp444
g3
F8.1111111111111107
sg4
I1
sg5
F0
sg6
I342
sg7
F3.5257731958762886
sg8
I27
sg9
F0.010309278350515464
sg10
I219
sg11
F0
sg12
I0
sg13
F21.375
sg14
F13.6875
sg15
I97
sg16
F0.0625
sg17
F89.099999999999994
sg18
I16
sg19
I0
sg20
I23745
sg21
F5.5687499999999996
sg22
VCharles White
p445
sa(dp446
g3
F8.5272727272727273
sg4
I3
sg5
F0.071428571428571425
sg6
I595
sg7
F3.7658227848101267
sg8
I55
sg9
F0.018987341772151899
sg10
I469
sg11
F0.018181818181818181
sg12
I1
sg13
F42.5
sg14
F33.5
sg15
I158
sg16
F0.21428571428571427
sg17
F185.40000000000001
sg18
I14
sg19
I0
sg20
I7505
sg21
F13.242857142857144
sg22
VClark Gaines
p447
sa(dp448
g3
F6.4634146341463419
sg4
I3
sg5
F0
sg6
I644
sg7
F3.8333333333333335
sg8
I41
sg9
F0.017857142857142856
sg10
I265
sg11
F0
sg12
I0
sg13
F46
sg14
F18.928571428571427
sg15
I168
sg16
F0.21428571428571427
sg17
F149.90000000000001
sg18
I14
sg19
I0
sg20
I7526
sg21
F10.707142857142857
sg22
VTony Galbreath
p449
sa(dp450
g3
F8.5636363636363644
sg4
I3
sg5
F0.10000000000000001
sg6
I417
sg7
F4.2989690721649483
sg8
I55
sg9
F0.030927835051546393
sg10
I471
sg11
F0.018181818181818181
sg12
I1
sg13
F41.700000000000003
sg14
F47.100000000000001
sg15
I97
sg16
F0.29999999999999999
sg17
F167.80000000000001
sg18
I10
sg19
I0
sg20
I23923
sg21
F16.780000000000001
sg22
VJames Wilder
p451
sa(dp452
g3
F6.5
sg4
I4
sg5
F0.0625
sg6
I780
sg7
F3.3620689655172415
sg8
I8
sg9
F0.017241379310344827
sg10
I52
sg11
F0.125
sg12
I1
sg13
F48.75
sg14
F3.25
sg15
I232
sg16
F0.25
sg17
F121.2
sg18
I16
sg19
I11
sg20
I15733
sg21
F7.5750000000000002
sg22
VRonald Moore
p453
sa(dp454
g3
F10.054054054054054
sg4
I5
sg5
F0.23076923076923078
sg6
I779
sg7
F4.2802197802197801
sg8
I37
sg9
F0.027472527472527472
sg10
I372
sg11
F0.081081081081081086
sg12
I3
sg13
F59.92307692307692
sg14
F28.615384615384617
sg15
I182
sg16
F0.38461538461538464
sg17
F200.09999999999999
sg18
I13
sg19
I48
sg20
I15773
sg21
F15.392307692307693
sg22
VKnowshon Moreno
p455
sa(dp456
g3
F8.3571428571428577
sg4
I5
sg5
F0.14285714285714285
sg6
I763
sg7
F3.994764397905759
sg8
I42
sg9
F0.026178010471204188
sg10
I351
sg11
F0.047619047619047616
sg12
I2
sg13
F54.5
sg14
F25.071428571428573
sg15
I191
sg16
F0.35714285714285715
sg17
F195.40000000000001
sg18
I14
sg19
I0
sg20
I23966
sg21
F13.957142857142857
sg22
VKen Willard
p457
sa(dp458
g3
F6.5333333333333332
sg4
I1
sg5
F0
sg6
I798
sg7
F3.5466666666666669
sg8
I30
sg9
F0.0044444444444444444
sg10
I196
sg11
F0
sg12
I0
sg13
F57
sg14
F14
sg15
I225
sg16
F0.071428571428571425
sg17
F135.40000000000001
sg18
I14
sg19
I44
sg20
I24008
sg21
F9.6714285714285726
sg22
VCadillac Williams
p459
sa(dp460
g3
F6.0999999999999996
sg4
I7
sg5
F0
sg6
I679
sg7
F5.4320000000000004
sg8
I10
sg9
F0.056000000000000001
sg10
I61
sg11
F0
sg12
I0
sg13
F39.941176470588232
sg14
F3.5882352941176472
sg15
I125
sg16
F0.41176470588235292
sg17
F126
sg18
I17
sg19
I15
sg20
I7625
sg21
F7.4117647058823533
sg22
VCharlie Garner
p461
sa(dp462
g3
F4.2352941176470589
sg4
I13
sg5
F0
sg6
I747
sg7
F3.7537688442211055
sg8
I17
sg9
F0.065326633165829151
sg10
I72
sg11
F0
sg12
I0
sg13
F46.6875
sg14
F4.5
sg15
I199
sg16
F0.8125
sg17
F176.90000000000001
sg18
I16
sg19
I19
sg20
I15819
sg21
F11.05625
sg22
VBam Morris 
p463
sa(dp464
g3
F8.3076923076923084
sg4
I4
sg5
F0
sg6
I272
sg7
F3.0909090909090908
sg8
I26
sg9
F0.045454545454545456
sg10
I216
sg11
F0
sg12
I0
sg13
F20.923076923076923
sg14
F16.615384615384617
sg15
I88
sg16
F0.30769230769230771
sg17
F98.799999999999997
sg18
I13
sg19
I0
sg20
I7641
sg21
F7.5999999999999996
sg22
VCarl Garrett
p465
sa(dp466
g3
F8.125
sg4
I2
sg5
F0
sg6
I336
sg7
F2.7096774193548385
sg8
I8
sg9
F0.016129032258064516
sg10
I65
sg11
F0
sg12
I0
sg13
F28
sg14
F5.416666666666667
sg15
I124
sg16
F0.16666666666666666
sg17
F60.100000000000001
sg18
I12
sg19
I0
sg20
I15834
sg21
F5.0083333333333337
sg22
VJamie Morris 
p467
sa(dp468
g3
F5.6739130434782608
sg4
I9
sg5
F0.071428571428571425
sg6
I1087
sg7
F4.6059322033898304
sg8
I46
sg9
F0.038135593220338986
sg10
I261
sg11
F0.021739130434782608
sg12
I1
sg13
F77.642857142857139
sg14
F18.642857142857142
sg15
I236
sg16
F0.6428571428571429
sg17
F240.80000000000001
sg18
I14
sg19
I0
sg20
I7650
sg21
F17.199999999999999
sg22
VMike Garrett
p469
sa(dp470
g3
F7.6086956521739131
sg4
I4
sg5
F0.0625
sg6
I717
sg7
F4.979166666666667
sg8
I23
sg9
F0.027777777777777776
sg10
I175
sg11
F0.043478260869565216
sg12
I1
sg13
F44.8125
sg14
F10.9375
sg15
I144
sg16
F0.25
sg17
F142.19999999999999
sg18
I16
sg19
I38
sg20
I24043
sg21
F8.8874999999999993
sg22
VDeAngelo Williams
p471
sa(dp472
g3
F8.6470588235294112
sg4
I13
sg5
F0.066666666666666666
sg6
I1188
sg7
F3.9337748344370862
sg8
I68
sg9
F0.043046357615894038
sg10
I588
sg11
F0.014705882352941176
sg12
I1
sg13
F79.200000000000003
sg14
F39.200000000000003
sg15
I302
sg16
F0.8666666666666667
sg17
F329.60000000000002
sg18
I15
sg19
I84
sg20
I24054
sg21
F21.973333333333336
sg22
VDomanick Williams
p473
sa(dp474
g3
F6.2857142857142856
sg4
I6
sg5
F0.0625
sg6
I1399
sg7
F3.918767507002801
sg8
I7
sg9
F0.01680672268907563
sg10
I44
sg11
F0.14285714285714285
sg12
I1
sg13
F87.4375
sg14
F2.75
sg15
I357
sg16
F0.375
sg17
F193.30000000000001
sg18
I16
sg19
I12
sg20
I7763
sg21
F12.081250000000001
sg22
VEddie George
p475
sa(dp476
g3
F8.2608695652173907
sg4
I1
sg5
F0.1875
sg6
I531
sg7
F4.8715596330275233
sg8
I23
sg9
F0.0091743119266055051
sg10
I190
sg11
F0.13043478260869565
sg12
I3
sg13
F33.1875
sg14
F11.875
sg15
I109
sg16
F0.0625
sg17
F119.09999999999999
sg18
I16
sg19
I28
sg20
I7783
sg21
F7.4437499999999996
sg22
VToby Gerhart 
p477
sa(dp478
g3
F11.80952380952381
sg4
I6
sg5
F0.071428571428571425
sg6
I811
sg7
F4.0348258706467659
sg8
I21
sg9
F0.029850746268656716
sg10
I248
sg11
F0.047619047619047616
sg12
I1
sg13
F57.928571428571431
sg14
F17.714285714285715
sg15
I201
sg16
F0.42857142857142855
sg17
F168.90000000000001
sg18
I14
sg19
I0
sg20
I16024
sg21
F12.064285714285715
sg22
VChuck Muncie
p479
sa(dp480
g3
F9.1333333333333329
sg4
I8
sg5
F0.090909090909090912
sg6
I1014
sg7
F3.9921259842519685
sg8
I45
sg9
F0.031496062992125984
sg10
I411
sg11
F0.022222222222222223
sg12
I1
sg13
F92.181818181818187
sg14
F37.363636363636367
sg15
I254
sg16
F0.72727272727272729
sg17
F241.5
sg18
I11
sg19
I57
sg20
I24219
sg21
F21.954545454545453
sg22
VRicky Williams
p481
sa(dp482
g3
F7.1714285714285717
sg4
I4
sg5
F0
sg6
I663
sg7
F4.1180124223602483
sg8
I35
sg9
F0.024844720496894408
sg10
I251
sg11
F0
sg12
I0
sg13
F66.299999999999997
sg14
F25.100000000000001
sg15
I161
sg16
F0.40000000000000002
sg17
F150.40000000000001
sg18
I10
sg19
I42
sg20
I16086
sg21
F15.040000000000001
sg22
VDeMarco Murray
p483
sa(dp484
g3
F6.5999999999999996
sg4
I0
sg5
F0.15384615384615385
sg6
I461
sg7
F3.4402985074626864
sg8
I45
sg9
F0
sg10
I297
sg11
F0.044444444444444446
sg12
I2
sg13
F35.46153846153846
sg14
F22.846153846153847
sg15
I134
sg16
F0
sg17
F132.80000000000001
sg18
I13
sg19
I0
sg20
I24310
sg21
F10.215384615384616
sg22
VFred Willis
p485
sa(dp486
g3
F12.875
sg4
I11
sg5
F0
sg6
I1458
sg7
F4.8762541806020065
sg8
I8
sg9
F0.03678929765886288
sg10
I103
sg11
F0
sg12
I0
sg13
F104.14285714285714
sg14
F7.3571428571428568
sg15
I299
sg16
F0.7857142857142857
sg17
F230.09999999999999
sg18
I14
sg19
I0
sg20
I16176
sg21
F16.435714285714287
sg22
VJim Nance
p487
sa(dp488
g3
F13.636363636363637
sg4
I6
sg5
F0.10000000000000001
sg6
I1486
sg7
F4.4358208955223883
sg8
I33
sg9
F0.017910447761194031
sg10
I450
sg11
F0.060606060606060608
sg12
I2
sg13
F74.299999999999997
sg14
F22.5
sg15
I335
sg16
F0.29999999999999999
sg17
F274.60000000000002
sg18
I20
sg19
I0
sg20
I10899
sg21
F13.73
sg22
VCraig James
p489
sa(dp490
g3
F8.3636363636363633
sg4
I5
sg5
F0
sg6
I1008
sg7
F4.1825726141078841
sg8
I33
sg9
F0.020746887966804978
sg10
I276
sg11
F0
sg12
I0
sg13
F77.538461538461533
sg14
F21.23076923076923
sg15
I241
sg16
F0.38461538461538464
sg17
F191.40000000000001
sg18
I13
sg19
I38
sg20
I2723
sg21
F14.723076923076924
sg22
VRonnie Brown
p491
sa(dp492
g3
F8.6666666666666661
sg4
I7
sg5
F0
sg6
I1275
sg7
F4.6195652173913047
sg8
I9
sg9
F0.025362318840579712
sg10
I78
sg11
F0
sg12
I0
sg13
F79.6875
sg14
F4.875
sg15
I276
sg16
F0.4375
sg17
F186.30000000000001
sg18
I16
sg19
I12
sg20
I15817
sg21
F11.643750000000001
sg22
VAlfred Morris 
p493
sa(dp494
g3
F10.219512195121951
sg4
I10
sg5
F0.15384615384615385
sg6
I997
sg7
F3.9251968503937009
sg8
I41
sg9
F0.03937007874015748
sg10
I419
sg11
F0.04878048780487805
sg12
I2
sg13
F76.692307692307693
sg14
F32.230769230769234
sg15
I254
sg16
F0.76923076923076927
sg17
F254.59999999999999
sg18
I13
sg19
I57
sg20
I8145
sg21
F19.584615384615383
sg22
VMelvin Gordon
p495
sa(dp496
g3
F7.9508196721311473
sg4
I8
sg5
F0.0625
sg6
I1695
sg7
F5.4326923076923075
sg8
I61
sg9
F0.02564102564102564
sg10
I485
sg11
F0.016393442622950821
sg12
I1
sg13
F105.9375
sg14
F30.3125
sg15
I312
sg16
F0.5
sg17
F333
sg18
I16
sg19
I86
sg20
I8152
sg21
F20.8125
sg22
VFrank Gore
p497
sa.